
IAPBootloaderViaUart.elf:     file format elf32-littlearm

Sections:
Idx Name          Size      VMA       LMA       File off  Algn
  0 .isr_vector   00000298  08000000  08000000  00010000  2**0
                  CONTENTS, ALLOC, LOAD, READONLY, DATA
  1 .text         000047d4  080002a0  080002a0  000102a0  2**4
                  CONTENTS, ALLOC, LOAD, READONLY, CODE
  2 .rodata       00000100  08004a74  08004a74  00014a74  2**2
                  CONTENTS, ALLOC, LOAD, READONLY, DATA
  3 .ARM.extab    00000000  08004b74  08004b74  00020134  2**0
                  CONTENTS
  4 .ARM          00000008  08004b74  08004b74  00014b74  2**2
                  CONTENTS, ALLOC, LOAD, READONLY, DATA
  5 .preinit_array 00000000  08004b7c  08004b7c  00020134  2**0
                  CONTENTS, ALLOC, LOAD, DATA
  6 .init_array   00000004  08004b7c  08004b7c  00014b7c  2**2
                  CONTENTS, ALLOC, LOAD, DATA
  7 .fini_array   00000004  08004b80  08004b80  00014b80  2**2
                  CONTENTS, ALLOC, LOAD, DATA
  8 .data         00000074  24000000  08004b84  00020000  2**2
                  CONTENTS, ALLOC, LOAD, DATA
  9 .RxDecripSection 00000060  24000074  08004bf8  00020074  2**2
                  CONTENTS, ALLOC, LOAD, DATA
 10 .TxDecripSection 00000060  240000d4  08004c58  000200d4  2**2
                  CONTENTS, ALLOC, LOAD, DATA
 11 .bss          00000568  24000134  08004cb8  00020134  2**2
                  ALLOC
 12 ._user_heap_stack 00000604  2400069c  08004cb8  0002069c  2**0
                  ALLOC
 13 .ARM.attributes 0000002e  00000000  00000000  00020134  2**0
                  CONTENTS, READONLY
 14 .comment      0000007b  00000000  00000000  00020162  2**0
                  CONTENTS, READONLY
 15 .debug_frame  00000794  00000000  00000000  000201e0  2**2
                  CONTENTS, READONLY, DEBUGGING

Disassembly of section .text:

080002a0 <__do_global_dtors_aux>:
 80002a0:	b510      	push	{r4, lr}
 80002a2:	4c05      	ldr	r4, [pc, #20]	; (80002b8 <__do_global_dtors_aux+0x18>)
 80002a4:	7823      	ldrb	r3, [r4, #0]
 80002a6:	b933      	cbnz	r3, 80002b6 <__do_global_dtors_aux+0x16>
 80002a8:	4b04      	ldr	r3, [pc, #16]	; (80002bc <__do_global_dtors_aux+0x1c>)
 80002aa:	b113      	cbz	r3, 80002b2 <__do_global_dtors_aux+0x12>
 80002ac:	4804      	ldr	r0, [pc, #16]	; (80002c0 <__do_global_dtors_aux+0x20>)
 80002ae:	f3af 8000 	nop.w
 80002b2:	2301      	movs	r3, #1
 80002b4:	7023      	strb	r3, [r4, #0]
 80002b6:	bd10      	pop	{r4, pc}
 80002b8:	24000134 	.word	0x24000134
 80002bc:	00000000 	.word	0x00000000
 80002c0:	08004a5c 	.word	0x08004a5c

080002c4 <frame_dummy>:
 80002c4:	b508      	push	{r3, lr}
 80002c6:	4b03      	ldr	r3, [pc, #12]	; (80002d4 <frame_dummy+0x10>)
 80002c8:	b11b      	cbz	r3, 80002d2 <frame_dummy+0xe>
 80002ca:	4903      	ldr	r1, [pc, #12]	; (80002d8 <frame_dummy+0x14>)
 80002cc:	4803      	ldr	r0, [pc, #12]	; (80002dc <frame_dummy+0x18>)
 80002ce:	f3af 8000 	nop.w
 80002d2:	bd08      	pop	{r3, pc}
 80002d4:	00000000 	.word	0x00000000
 80002d8:	24000138 	.word	0x24000138
 80002dc:	08004a5c 	.word	0x08004a5c

080002e0 <memchr>:
 80002e0:	f001 01ff 	and.w	r1, r1, #255	; 0xff
 80002e4:	2a10      	cmp	r2, #16
 80002e6:	db2b      	blt.n	8000340 <memchr+0x60>
 80002e8:	f010 0f07 	tst.w	r0, #7
 80002ec:	d008      	beq.n	8000300 <memchr+0x20>
 80002ee:	f810 3b01 	ldrb.w	r3, [r0], #1
 80002f2:	3a01      	subs	r2, #1
 80002f4:	428b      	cmp	r3, r1
 80002f6:	d02d      	beq.n	8000354 <memchr+0x74>
 80002f8:	f010 0f07 	tst.w	r0, #7
 80002fc:	b342      	cbz	r2, 8000350 <memchr+0x70>
 80002fe:	d1f6      	bne.n	80002ee <memchr+0xe>
 8000300:	b4f0      	push	{r4, r5, r6, r7}
 8000302:	ea41 2101 	orr.w	r1, r1, r1, lsl #8
 8000306:	ea41 4101 	orr.w	r1, r1, r1, lsl #16
 800030a:	f022 0407 	bic.w	r4, r2, #7
 800030e:	f07f 0700 	mvns.w	r7, #0
 8000312:	2300      	movs	r3, #0
 8000314:	e8f0 5602 	ldrd	r5, r6, [r0], #8
 8000318:	3c08      	subs	r4, #8
 800031a:	ea85 0501 	eor.w	r5, r5, r1
 800031e:	ea86 0601 	eor.w	r6, r6, r1
 8000322:	fa85 f547 	uadd8	r5, r5, r7
 8000326:	faa3 f587 	sel	r5, r3, r7
 800032a:	fa86 f647 	uadd8	r6, r6, r7
 800032e:	faa5 f687 	sel	r6, r5, r7
 8000332:	b98e      	cbnz	r6, 8000358 <memchr+0x78>
 8000334:	d1ee      	bne.n	8000314 <memchr+0x34>
 8000336:	bcf0      	pop	{r4, r5, r6, r7}
 8000338:	f001 01ff 	and.w	r1, r1, #255	; 0xff
 800033c:	f002 0207 	and.w	r2, r2, #7
 8000340:	b132      	cbz	r2, 8000350 <memchr+0x70>
 8000342:	f810 3b01 	ldrb.w	r3, [r0], #1
 8000346:	3a01      	subs	r2, #1
 8000348:	ea83 0301 	eor.w	r3, r3, r1
 800034c:	b113      	cbz	r3, 8000354 <memchr+0x74>
 800034e:	d1f8      	bne.n	8000342 <memchr+0x62>
 8000350:	2000      	movs	r0, #0
 8000352:	4770      	bx	lr
 8000354:	3801      	subs	r0, #1
 8000356:	4770      	bx	lr
 8000358:	2d00      	cmp	r5, #0
 800035a:	bf06      	itte	eq
 800035c:	4635      	moveq	r5, r6
 800035e:	3803      	subeq	r0, #3
 8000360:	3807      	subne	r0, #7
 8000362:	f015 0f01 	tst.w	r5, #1
 8000366:	d107      	bne.n	8000378 <memchr+0x98>
 8000368:	3001      	adds	r0, #1
 800036a:	f415 7f80 	tst.w	r5, #256	; 0x100
 800036e:	bf02      	ittt	eq
 8000370:	3001      	addeq	r0, #1
 8000372:	f415 3fc0 	tsteq.w	r5, #98304	; 0x18000
 8000376:	3001      	addeq	r0, #1
 8000378:	bcf0      	pop	{r4, r5, r6, r7}
 800037a:	3801      	subs	r0, #1
 800037c:	4770      	bx	lr
 800037e:	bf00      	nop

08000380 <__aeabi_uldivmod>:
 8000380:	b953      	cbnz	r3, 8000398 <__aeabi_uldivmod+0x18>
 8000382:	b94a      	cbnz	r2, 8000398 <__aeabi_uldivmod+0x18>
 8000384:	2900      	cmp	r1, #0
 8000386:	bf08      	it	eq
 8000388:	2800      	cmpeq	r0, #0
 800038a:	bf1c      	itt	ne
 800038c:	f04f 31ff 	movne.w	r1, #4294967295
 8000390:	f04f 30ff 	movne.w	r0, #4294967295
 8000394:	f000 b972 	b.w	800067c <__aeabi_idiv0>
 8000398:	f1ad 0c08 	sub.w	ip, sp, #8
 800039c:	e96d ce04 	strd	ip, lr, [sp, #-16]!
 80003a0:	f000 f806 	bl	80003b0 <__udivmoddi4>
 80003a4:	f8dd e004 	ldr.w	lr, [sp, #4]
 80003a8:	e9dd 2302 	ldrd	r2, r3, [sp, #8]
 80003ac:	b004      	add	sp, #16
 80003ae:	4770      	bx	lr

080003b0 <__udivmoddi4>:
 80003b0:	e92d 47f0 	stmdb	sp!, {r4, r5, r6, r7, r8, r9, sl, lr}
 80003b4:	9e08      	ldr	r6, [sp, #32]
 80003b6:	4604      	mov	r4, r0
 80003b8:	4688      	mov	r8, r1
 80003ba:	2b00      	cmp	r3, #0
 80003bc:	d14b      	bne.n	8000456 <__udivmoddi4+0xa6>
 80003be:	428a      	cmp	r2, r1
 80003c0:	4615      	mov	r5, r2
 80003c2:	d967      	bls.n	8000494 <__udivmoddi4+0xe4>
 80003c4:	fab2 f282 	clz	r2, r2
 80003c8:	b14a      	cbz	r2, 80003de <__udivmoddi4+0x2e>
 80003ca:	f1c2 0720 	rsb	r7, r2, #32
 80003ce:	fa01 f302 	lsl.w	r3, r1, r2
 80003d2:	fa20 f707 	lsr.w	r7, r0, r7
 80003d6:	4095      	lsls	r5, r2
 80003d8:	ea47 0803 	orr.w	r8, r7, r3
 80003dc:	4094      	lsls	r4, r2
 80003de:	ea4f 4e15 	mov.w	lr, r5, lsr #16
 80003e2:	0c23      	lsrs	r3, r4, #16
 80003e4:	fbb8 f7fe 	udiv	r7, r8, lr
 80003e8:	fa1f fc85 	uxth.w	ip, r5
 80003ec:	fb0e 8817 	mls	r8, lr, r7, r8
 80003f0:	ea43 4308 	orr.w	r3, r3, r8, lsl #16
 80003f4:	fb07 f10c 	mul.w	r1, r7, ip
 80003f8:	4299      	cmp	r1, r3
 80003fa:	d909      	bls.n	8000410 <__udivmoddi4+0x60>
 80003fc:	18eb      	adds	r3, r5, r3
 80003fe:	f107 30ff 	add.w	r0, r7, #4294967295
 8000402:	f080 811b 	bcs.w	800063c <__udivmoddi4+0x28c>
 8000406:	4299      	cmp	r1, r3
 8000408:	f240 8118 	bls.w	800063c <__udivmoddi4+0x28c>
 800040c:	3f02      	subs	r7, #2
 800040e:	442b      	add	r3, r5
 8000410:	1a5b      	subs	r3, r3, r1
 8000412:	b2a4      	uxth	r4, r4
 8000414:	fbb3 f0fe 	udiv	r0, r3, lr
 8000418:	fb0e 3310 	mls	r3, lr, r0, r3
 800041c:	ea44 4403 	orr.w	r4, r4, r3, lsl #16
 8000420:	fb00 fc0c 	mul.w	ip, r0, ip
 8000424:	45a4      	cmp	ip, r4
 8000426:	d909      	bls.n	800043c <__udivmoddi4+0x8c>
 8000428:	192c      	adds	r4, r5, r4
 800042a:	f100 33ff 	add.w	r3, r0, #4294967295
 800042e:	f080 8107 	bcs.w	8000640 <__udivmoddi4+0x290>
 8000432:	45a4      	cmp	ip, r4
 8000434:	f240 8104 	bls.w	8000640 <__udivmoddi4+0x290>
 8000438:	3802      	subs	r0, #2
 800043a:	442c      	add	r4, r5
 800043c:	ea40 4007 	orr.w	r0, r0, r7, lsl #16
 8000440:	eba4 040c 	sub.w	r4, r4, ip
 8000444:	2700      	movs	r7, #0
 8000446:	b11e      	cbz	r6, 8000450 <__udivmoddi4+0xa0>
 8000448:	40d4      	lsrs	r4, r2
 800044a:	2300      	movs	r3, #0
 800044c:	e9c6 4300 	strd	r4, r3, [r6]
 8000450:	4639      	mov	r1, r7
 8000452:	e8bd 87f0 	ldmia.w	sp!, {r4, r5, r6, r7, r8, r9, sl, pc}
 8000456:	428b      	cmp	r3, r1
 8000458:	d909      	bls.n	800046e <__udivmoddi4+0xbe>
 800045a:	2e00      	cmp	r6, #0
 800045c:	f000 80eb 	beq.w	8000636 <__udivmoddi4+0x286>
 8000460:	2700      	movs	r7, #0
 8000462:	e9c6 0100 	strd	r0, r1, [r6]
 8000466:	4638      	mov	r0, r7
 8000468:	4639      	mov	r1, r7
 800046a:	e8bd 87f0 	ldmia.w	sp!, {r4, r5, r6, r7, r8, r9, sl, pc}
 800046e:	fab3 f783 	clz	r7, r3
 8000472:	2f00      	cmp	r7, #0
 8000474:	d147      	bne.n	8000506 <__udivmoddi4+0x156>
 8000476:	428b      	cmp	r3, r1
 8000478:	d302      	bcc.n	8000480 <__udivmoddi4+0xd0>
 800047a:	4282      	cmp	r2, r0
 800047c:	f200 80fa 	bhi.w	8000674 <__udivmoddi4+0x2c4>
 8000480:	1a84      	subs	r4, r0, r2
 8000482:	eb61 0303 	sbc.w	r3, r1, r3
 8000486:	2001      	movs	r0, #1
 8000488:	4698      	mov	r8, r3
 800048a:	2e00      	cmp	r6, #0
 800048c:	d0e0      	beq.n	8000450 <__udivmoddi4+0xa0>
 800048e:	e9c6 4800 	strd	r4, r8, [r6]
 8000492:	e7dd      	b.n	8000450 <__udivmoddi4+0xa0>
 8000494:	b902      	cbnz	r2, 8000498 <__udivmoddi4+0xe8>
 8000496:	deff      	udf	#255	; 0xff
 8000498:	fab2 f282 	clz	r2, r2
 800049c:	2a00      	cmp	r2, #0
 800049e:	f040 808f 	bne.w	80005c0 <__udivmoddi4+0x210>
 80004a2:	1b49      	subs	r1, r1, r5
 80004a4:	ea4f 4e15 	mov.w	lr, r5, lsr #16
 80004a8:	fa1f f885 	uxth.w	r8, r5
 80004ac:	2701      	movs	r7, #1
 80004ae:	fbb1 fcfe 	udiv	ip, r1, lr
 80004b2:	0c23      	lsrs	r3, r4, #16
 80004b4:	fb0e 111c 	mls	r1, lr, ip, r1
 80004b8:	ea43 4301 	orr.w	r3, r3, r1, lsl #16
 80004bc:	fb08 f10c 	mul.w	r1, r8, ip
 80004c0:	4299      	cmp	r1, r3
 80004c2:	d907      	bls.n	80004d4 <__udivmoddi4+0x124>
 80004c4:	18eb      	adds	r3, r5, r3
 80004c6:	f10c 30ff 	add.w	r0, ip, #4294967295
 80004ca:	d202      	bcs.n	80004d2 <__udivmoddi4+0x122>
 80004cc:	4299      	cmp	r1, r3
 80004ce:	f200 80cd 	bhi.w	800066c <__udivmoddi4+0x2bc>
 80004d2:	4684      	mov	ip, r0
 80004d4:	1a59      	subs	r1, r3, r1
 80004d6:	b2a3      	uxth	r3, r4
 80004d8:	fbb1 f0fe 	udiv	r0, r1, lr
 80004dc:	fb0e 1410 	mls	r4, lr, r0, r1
 80004e0:	ea43 4404 	orr.w	r4, r3, r4, lsl #16
 80004e4:	fb08 f800 	mul.w	r8, r8, r0
 80004e8:	45a0      	cmp	r8, r4
 80004ea:	d907      	bls.n	80004fc <__udivmoddi4+0x14c>
 80004ec:	192c      	adds	r4, r5, r4
 80004ee:	f100 33ff 	add.w	r3, r0, #4294967295
 80004f2:	d202      	bcs.n	80004fa <__udivmoddi4+0x14a>
 80004f4:	45a0      	cmp	r8, r4
 80004f6:	f200 80b6 	bhi.w	8000666 <__udivmoddi4+0x2b6>
 80004fa:	4618      	mov	r0, r3
 80004fc:	eba4 0408 	sub.w	r4, r4, r8
 8000500:	ea40 400c 	orr.w	r0, r0, ip, lsl #16
 8000504:	e79f      	b.n	8000446 <__udivmoddi4+0x96>
 8000506:	f1c7 0c20 	rsb	ip, r7, #32
 800050a:	40bb      	lsls	r3, r7
 800050c:	fa22 fe0c 	lsr.w	lr, r2, ip
 8000510:	ea4e 0e03 	orr.w	lr, lr, r3
 8000514:	fa01 f407 	lsl.w	r4, r1, r7
 8000518:	fa20 f50c 	lsr.w	r5, r0, ip
 800051c:	fa21 f30c 	lsr.w	r3, r1, ip
 8000520:	ea4f 481e 	mov.w	r8, lr, lsr #16
 8000524:	4325      	orrs	r5, r4
 8000526:	fbb3 f9f8 	udiv	r9, r3, r8
 800052a:	0c2c      	lsrs	r4, r5, #16
 800052c:	fb08 3319 	mls	r3, r8, r9, r3
 8000530:	fa1f fa8e 	uxth.w	sl, lr
 8000534:	ea44 4303 	orr.w	r3, r4, r3, lsl #16
 8000538:	fb09 f40a 	mul.w	r4, r9, sl
 800053c:	429c      	cmp	r4, r3
 800053e:	fa02 f207 	lsl.w	r2, r2, r7
 8000542:	fa00 f107 	lsl.w	r1, r0, r7
 8000546:	d90b      	bls.n	8000560 <__udivmoddi4+0x1b0>
 8000548:	eb1e 0303 	adds.w	r3, lr, r3
 800054c:	f109 30ff 	add.w	r0, r9, #4294967295
 8000550:	f080 8087 	bcs.w	8000662 <__udivmoddi4+0x2b2>
 8000554:	429c      	cmp	r4, r3
 8000556:	f240 8084 	bls.w	8000662 <__udivmoddi4+0x2b2>
 800055a:	f1a9 0902 	sub.w	r9, r9, #2
 800055e:	4473      	add	r3, lr
 8000560:	1b1b      	subs	r3, r3, r4
 8000562:	b2ad      	uxth	r5, r5
 8000564:	fbb3 f0f8 	udiv	r0, r3, r8
 8000568:	fb08 3310 	mls	r3, r8, r0, r3
 800056c:	ea45 4403 	orr.w	r4, r5, r3, lsl #16
 8000570:	fb00 fa0a 	mul.w	sl, r0, sl
 8000574:	45a2      	cmp	sl, r4
 8000576:	d908      	bls.n	800058a <__udivmoddi4+0x1da>
 8000578:	eb1e 0404 	adds.w	r4, lr, r4
 800057c:	f100 33ff 	add.w	r3, r0, #4294967295
 8000580:	d26b      	bcs.n	800065a <__udivmoddi4+0x2aa>
 8000582:	45a2      	cmp	sl, r4
 8000584:	d969      	bls.n	800065a <__udivmoddi4+0x2aa>
 8000586:	3802      	subs	r0, #2
 8000588:	4474      	add	r4, lr
 800058a:	ea40 4009 	orr.w	r0, r0, r9, lsl #16
 800058e:	fba0 8902 	umull	r8, r9, r0, r2
 8000592:	eba4 040a 	sub.w	r4, r4, sl
 8000596:	454c      	cmp	r4, r9
 8000598:	46c2      	mov	sl, r8
 800059a:	464b      	mov	r3, r9
 800059c:	d354      	bcc.n	8000648 <__udivmoddi4+0x298>
 800059e:	d051      	beq.n	8000644 <__udivmoddi4+0x294>
 80005a0:	2e00      	cmp	r6, #0
 80005a2:	d069      	beq.n	8000678 <__udivmoddi4+0x2c8>
 80005a4:	ebb1 050a 	subs.w	r5, r1, sl
 80005a8:	eb64 0403 	sbc.w	r4, r4, r3
 80005ac:	fa04 fc0c 	lsl.w	ip, r4, ip
 80005b0:	40fd      	lsrs	r5, r7
 80005b2:	40fc      	lsrs	r4, r7
 80005b4:	ea4c 0505 	orr.w	r5, ip, r5
 80005b8:	e9c6 5400 	strd	r5, r4, [r6]
 80005bc:	2700      	movs	r7, #0
 80005be:	e747      	b.n	8000450 <__udivmoddi4+0xa0>
 80005c0:	f1c2 0320 	rsb	r3, r2, #32
 80005c4:	fa20 f703 	lsr.w	r7, r0, r3
 80005c8:	4095      	lsls	r5, r2
 80005ca:	fa01 f002 	lsl.w	r0, r1, r2
 80005ce:	fa21 f303 	lsr.w	r3, r1, r3
 80005d2:	ea4f 4e15 	mov.w	lr, r5, lsr #16
 80005d6:	4338      	orrs	r0, r7
 80005d8:	0c01      	lsrs	r1, r0, #16
 80005da:	fbb3 f7fe 	udiv	r7, r3, lr
 80005de:	fa1f f885 	uxth.w	r8, r5
 80005e2:	fb0e 3317 	mls	r3, lr, r7, r3
 80005e6:	ea41 4103 	orr.w	r1, r1, r3, lsl #16
 80005ea:	fb07 f308 	mul.w	r3, r7, r8
 80005ee:	428b      	cmp	r3, r1
 80005f0:	fa04 f402 	lsl.w	r4, r4, r2
 80005f4:	d907      	bls.n	8000606 <__udivmoddi4+0x256>
 80005f6:	1869      	adds	r1, r5, r1
 80005f8:	f107 3cff 	add.w	ip, r7, #4294967295
 80005fc:	d22f      	bcs.n	800065e <__udivmoddi4+0x2ae>
 80005fe:	428b      	cmp	r3, r1
 8000600:	d92d      	bls.n	800065e <__udivmoddi4+0x2ae>
 8000602:	3f02      	subs	r7, #2
 8000604:	4429      	add	r1, r5
 8000606:	1acb      	subs	r3, r1, r3
 8000608:	b281      	uxth	r1, r0
 800060a:	fbb3 f0fe 	udiv	r0, r3, lr
 800060e:	fb0e 3310 	mls	r3, lr, r0, r3
 8000612:	ea41 4103 	orr.w	r1, r1, r3, lsl #16
 8000616:	fb00 f308 	mul.w	r3, r0, r8
 800061a:	428b      	cmp	r3, r1
 800061c:	d907      	bls.n	800062e <__udivmoddi4+0x27e>
 800061e:	1869      	adds	r1, r5, r1
 8000620:	f100 3cff 	add.w	ip, r0, #4294967295
 8000624:	d217      	bcs.n	8000656 <__udivmoddi4+0x2a6>
 8000626:	428b      	cmp	r3, r1
 8000628:	d915      	bls.n	8000656 <__udivmoddi4+0x2a6>
 800062a:	3802      	subs	r0, #2
 800062c:	4429      	add	r1, r5
 800062e:	1ac9      	subs	r1, r1, r3
 8000630:	ea40 4707 	orr.w	r7, r0, r7, lsl #16
 8000634:	e73b      	b.n	80004ae <__udivmoddi4+0xfe>
 8000636:	4637      	mov	r7, r6
 8000638:	4630      	mov	r0, r6
 800063a:	e709      	b.n	8000450 <__udivmoddi4+0xa0>
 800063c:	4607      	mov	r7, r0
 800063e:	e6e7      	b.n	8000410 <__udivmoddi4+0x60>
 8000640:	4618      	mov	r0, r3
 8000642:	e6fb      	b.n	800043c <__udivmoddi4+0x8c>
 8000644:	4541      	cmp	r1, r8
 8000646:	d2ab      	bcs.n	80005a0 <__udivmoddi4+0x1f0>
 8000648:	ebb8 0a02 	subs.w	sl, r8, r2
 800064c:	eb69 020e 	sbc.w	r2, r9, lr
 8000650:	3801      	subs	r0, #1
 8000652:	4613      	mov	r3, r2
 8000654:	e7a4      	b.n	80005a0 <__udivmoddi4+0x1f0>
 8000656:	4660      	mov	r0, ip
 8000658:	e7e9      	b.n	800062e <__udivmoddi4+0x27e>
 800065a:	4618      	mov	r0, r3
 800065c:	e795      	b.n	800058a <__udivmoddi4+0x1da>
 800065e:	4667      	mov	r7, ip
 8000660:	e7d1      	b.n	8000606 <__udivmoddi4+0x256>
 8000662:	4681      	mov	r9, r0
 8000664:	e77c      	b.n	8000560 <__udivmoddi4+0x1b0>
 8000666:	3802      	subs	r0, #2
 8000668:	442c      	add	r4, r5
 800066a:	e747      	b.n	80004fc <__udivmoddi4+0x14c>
 800066c:	f1ac 0c02 	sub.w	ip, ip, #2
 8000670:	442b      	add	r3, r5
 8000672:	e72f      	b.n	80004d4 <__udivmoddi4+0x124>
 8000674:	4638      	mov	r0, r7
 8000676:	e708      	b.n	800048a <__udivmoddi4+0xda>
 8000678:	4637      	mov	r7, r6
 800067a:	e6e9      	b.n	8000450 <__udivmoddi4+0xa0>

0800067c <__aeabi_idiv0>:
 800067c:	4770      	bx	lr
 800067e:	bf00      	nop

08000680 <SystemClock_Config>:
 8000680:	b510      	push	{r4, lr}
 8000682:	b0cc      	sub	sp, #304	; 0x130
 8000684:	224c      	movs	r2, #76	; 0x4c
 8000686:	2100      	movs	r1, #0
 8000688:	a80a      	add	r0, sp, #40	; 0x28
 800068a:	f003 fafb 	bl	8003c84 <memset>
 800068e:	2220      	movs	r2, #32
 8000690:	2100      	movs	r1, #0
 8000692:	a802      	add	r0, sp, #8
 8000694:	f003 faf6 	bl	8003c84 <memset>
 8000698:	22bc      	movs	r2, #188	; 0xbc
 800069a:	2100      	movs	r1, #0
 800069c:	a81d      	add	r0, sp, #116	; 0x74
 800069e:	f003 faf1 	bl	8003c84 <memset>
 80006a2:	2002      	movs	r0, #2
 80006a4:	f001 f950 	bl	8001948 <HAL_PWREx_ConfigSupply>
 80006a8:	2300      	movs	r3, #0
 80006aa:	9301      	str	r3, [sp, #4]
 80006ac:	4b26      	ldr	r3, [pc, #152]	; (8000748 <SystemClock_Config+0xc8>)
 80006ae:	6ada      	ldr	r2, [r3, #44]	; 0x2c
 80006b0:	f022 0201 	bic.w	r2, r2, #1
 80006b4:	62da      	str	r2, [r3, #44]	; 0x2c
 80006b6:	6adb      	ldr	r3, [r3, #44]	; 0x2c
 80006b8:	f003 0301 	and.w	r3, r3, #1
 80006bc:	9301      	str	r3, [sp, #4]
 80006be:	4b23      	ldr	r3, [pc, #140]	; (800074c <SystemClock_Config+0xcc>)
 80006c0:	699a      	ldr	r2, [r3, #24]
 80006c2:	f422 4240 	bic.w	r2, r2, #49152	; 0xc000
 80006c6:	f442 4280 	orr.w	r2, r2, #16384	; 0x4000
 80006ca:	619a      	str	r2, [r3, #24]
 80006cc:	699a      	ldr	r2, [r3, #24]
 80006ce:	f402 4240 	and.w	r2, r2, #49152	; 0xc000
 80006d2:	9201      	str	r2, [sp, #4]
 80006d4:	9a01      	ldr	r2, [sp, #4]
 80006d6:	699a      	ldr	r2, [r3, #24]
 80006d8:	0491      	lsls	r1, r2, #18
 80006da:	d5fc      	bpl.n	80006d6 <SystemClock_Config+0x56>
 80006dc:	2203      	movs	r2, #3
 80006de:	f44f 23a0 	mov.w	r3, #327680	; 0x50000
 80006e2:	2400      	movs	r4, #0
 80006e4:	a80a      	add	r0, sp, #40	; 0x28
 80006e6:	e9cd 230a 	strd	r2, r3, [sp, #40]	; 0x28
 80006ea:	2201      	movs	r2, #1
 80006ec:	2340      	movs	r3, #64	; 0x40
 80006ee:	941c      	str	r4, [sp, #112]	; 0x70
 80006f0:	9215      	str	r2, [sp, #84]	; 0x54
 80006f2:	e9cd 230d 	strd	r2, r3, [sp, #52]	; 0x34
 80006f6:	2302      	movs	r3, #2
 80006f8:	2218      	movs	r2, #24
 80006fa:	e9cd 2316 	strd	r2, r3, [sp, #88]	; 0x58
 80006fe:	2204      	movs	r2, #4
 8000700:	e9cd 3313 	strd	r3, r3, [sp, #76]	; 0x4c
 8000704:	e9cd 2318 	strd	r2, r3, [sp, #96]	; 0x60
 8000708:	230c      	movs	r3, #12
 800070a:	e9cd 341a 	strd	r3, r4, [sp, #104]	; 0x68
 800070e:	f001 f947 	bl	80019a0 <HAL_RCC_OscConfig>
 8000712:	233f      	movs	r3, #63	; 0x3f
 8000714:	4621      	mov	r1, r4
 8000716:	a802      	add	r0, sp, #8
 8000718:	e9cd 3402 	strd	r3, r4, [sp, #8]
 800071c:	e9cd 4404 	strd	r4, r4, [sp, #16]
 8000720:	e9cd 4406 	strd	r4, r4, [sp, #24]
 8000724:	e9cd 4408 	strd	r4, r4, [sp, #32]
 8000728:	f001 fc6a 	bl	8002000 <HAL_RCC_ClockConfig>
 800072c:	4b08      	ldr	r3, [pc, #32]	; (8000750 <SystemClock_Config+0xd0>)
 800072e:	a81d      	add	r0, sp, #116	; 0x74
 8000730:	943a      	str	r4, [sp, #232]	; 0xe8
 8000732:	931d      	str	r3, [sp, #116]	; 0x74
 8000734:	f44f 1380 	mov.w	r3, #1048576	; 0x100000
 8000738:	933e      	str	r3, [sp, #248]	; 0xf8
 800073a:	f001 febd 	bl	80024b8 <HAL_RCCEx_PeriphCLKConfig>
 800073e:	f001 f927 	bl	8001990 <HAL_PWREx_EnableUSBVoltageDetector>
 8000742:	b04c      	add	sp, #304	; 0x130
 8000744:	bd10      	pop	{r4, pc}
 8000746:	bf00      	nop
 8000748:	58000400 	.word	0x58000400
 800074c:	58024800 	.word	0x58024800
 8000750:	00040002 	.word	0x00040002

08000754 <main>:
 8000754:	b580      	push	{r7, lr}
 8000756:	b08c      	sub	sp, #48	; 0x30
 8000758:	2400      	movs	r4, #0
 800075a:	f000 fb69 	bl	8000e30 <HAL_Init>
 800075e:	2601      	movs	r6, #1
 8000760:	f7ff ff8e 	bl	8000680 <SystemClock_Config>
 8000764:	2214      	movs	r2, #20
 8000766:	2100      	movs	r1, #0
 8000768:	a807      	add	r0, sp, #28
 800076a:	f003 fa8b 	bl	8003c84 <memset>
 800076e:	4b79      	ldr	r3, [pc, #484]	; (8000954 <main+0x200>)
 8000770:	f244 0101 	movw	r1, #16385	; 0x4001
 8000774:	4878      	ldr	r0, [pc, #480]	; (8000958 <main+0x204>)
 8000776:	f8d3 20e0 	ldr.w	r2, [r3, #224]	; 0xe0
 800077a:	2580      	movs	r5, #128	; 0x80
 800077c:	2702      	movs	r7, #2
 800077e:	f042 0204 	orr.w	r2, r2, #4
 8000782:	f8c3 20e0 	str.w	r2, [r3, #224]	; 0xe0
 8000786:	f8d3 20e0 	ldr.w	r2, [r3, #224]	; 0xe0
 800078a:	f002 0204 	and.w	r2, r2, #4
 800078e:	9200      	str	r2, [sp, #0]
 8000790:	9a00      	ldr	r2, [sp, #0]
 8000792:	f8d3 20e0 	ldr.w	r2, [r3, #224]	; 0xe0
 8000796:	f042 0280 	orr.w	r2, r2, #128	; 0x80
 800079a:	f8c3 20e0 	str.w	r2, [r3, #224]	; 0xe0
 800079e:	f8d3 20e0 	ldr.w	r2, [r3, #224]	; 0xe0
 80007a2:	f002 0280 	and.w	r2, r2, #128	; 0x80
 80007a6:	9201      	str	r2, [sp, #4]
 80007a8:	9a01      	ldr	r2, [sp, #4]
 80007aa:	f8d3 20e0 	ldr.w	r2, [r3, #224]	; 0xe0
 80007ae:	f042 0201 	orr.w	r2, r2, #1
 80007b2:	f8c3 20e0 	str.w	r2, [r3, #224]	; 0xe0
 80007b6:	f8d3 20e0 	ldr.w	r2, [r3, #224]	; 0xe0
 80007ba:	f002 0201 	and.w	r2, r2, #1
 80007be:	9202      	str	r2, [sp, #8]
 80007c0:	9a02      	ldr	r2, [sp, #8]
 80007c2:	f8d3 20e0 	ldr.w	r2, [r3, #224]	; 0xe0
 80007c6:	f042 0202 	orr.w	r2, r2, #2
 80007ca:	f8c3 20e0 	str.w	r2, [r3, #224]	; 0xe0
 80007ce:	f8d3 20e0 	ldr.w	r2, [r3, #224]	; 0xe0
 80007d2:	f002 0202 	and.w	r2, r2, #2
 80007d6:	9203      	str	r2, [sp, #12]
 80007d8:	9a03      	ldr	r2, [sp, #12]
 80007da:	f8d3 20e0 	ldr.w	r2, [r3, #224]	; 0xe0
 80007de:	f042 0208 	orr.w	r2, r2, #8
 80007e2:	f8c3 20e0 	str.w	r2, [r3, #224]	; 0xe0
 80007e6:	f8d3 20e0 	ldr.w	r2, [r3, #224]	; 0xe0
 80007ea:	f002 0208 	and.w	r2, r2, #8
 80007ee:	9204      	str	r2, [sp, #16]
 80007f0:	9a04      	ldr	r2, [sp, #16]
 80007f2:	f8d3 20e0 	ldr.w	r2, [r3, #224]	; 0xe0
 80007f6:	f042 0240 	orr.w	r2, r2, #64	; 0x40
 80007fa:	f8c3 20e0 	str.w	r2, [r3, #224]	; 0xe0
 80007fe:	f8d3 20e0 	ldr.w	r2, [r3, #224]	; 0xe0
 8000802:	f002 0240 	and.w	r2, r2, #64	; 0x40
 8000806:	9205      	str	r2, [sp, #20]
 8000808:	9a05      	ldr	r2, [sp, #20]
 800080a:	f8d3 20e0 	ldr.w	r2, [r3, #224]	; 0xe0
 800080e:	f042 0210 	orr.w	r2, r2, #16
 8000812:	f8c3 20e0 	str.w	r2, [r3, #224]	; 0xe0
 8000816:	2200      	movs	r2, #0
 8000818:	f8d3 30e0 	ldr.w	r3, [r3, #224]	; 0xe0
 800081c:	f003 0310 	and.w	r3, r3, #16
 8000820:	9306      	str	r3, [sp, #24]
 8000822:	9b06      	ldr	r3, [sp, #24]
 8000824:	f000 ffec 	bl	8001800 <HAL_GPIO_WritePin>
 8000828:	2200      	movs	r2, #0
 800082a:	f44f 6180 	mov.w	r1, #1024	; 0x400
 800082e:	484b      	ldr	r0, [pc, #300]	; (800095c <main+0x208>)
 8000830:	f000 ffe6 	bl	8001800 <HAL_GPIO_WritePin>
 8000834:	2200      	movs	r2, #0
 8000836:	2102      	movs	r1, #2
 8000838:	4849      	ldr	r0, [pc, #292]	; (8000960 <main+0x20c>)
 800083a:	f000 ffe1 	bl	8001800 <HAL_GPIO_WritePin>
 800083e:	f44f 5300 	mov.w	r3, #8192	; 0x2000
 8000842:	a907      	add	r1, sp, #28
 8000844:	4847      	ldr	r0, [pc, #284]	; (8000964 <main+0x210>)
 8000846:	9409      	str	r4, [sp, #36]	; 0x24
 8000848:	e9cd 3407 	strd	r3, r4, [sp, #28]
 800084c:	f000 feee 	bl	800162c <HAL_GPIO_Init>
 8000850:	f244 0301 	movw	r3, #16385	; 0x4001
 8000854:	a907      	add	r1, sp, #28
 8000856:	4840      	ldr	r0, [pc, #256]	; (8000958 <main+0x204>)
 8000858:	e9cd 3607 	strd	r3, r6, [sp, #28]
 800085c:	e9cd 4409 	strd	r4, r4, [sp, #36]	; 0x24
 8000860:	f000 fee4 	bl	800162c <HAL_GPIO_Init>
 8000864:	f44f 6380 	mov.w	r3, #1024	; 0x400
 8000868:	a907      	add	r1, sp, #28
 800086a:	483c      	ldr	r0, [pc, #240]	; (800095c <main+0x208>)
 800086c:	e9cd 3607 	strd	r3, r6, [sp, #28]
 8000870:	e9cd 4409 	strd	r4, r4, [sp, #36]	; 0x24
 8000874:	f000 feda 	bl	800162c <HAL_GPIO_Init>
 8000878:	4b3b      	ldr	r3, [pc, #236]	; (8000968 <main+0x214>)
 800087a:	a907      	add	r1, sp, #28
 800087c:	483b      	ldr	r0, [pc, #236]	; (800096c <main+0x218>)
 800087e:	9409      	str	r4, [sp, #36]	; 0x24
 8000880:	e9cd 5307 	strd	r5, r3, [sp, #28]
 8000884:	f000 fed2 	bl	800162c <HAL_GPIO_Init>
 8000888:	a907      	add	r1, sp, #28
 800088a:	4835      	ldr	r0, [pc, #212]	; (8000960 <main+0x20c>)
 800088c:	e9cd 4409 	strd	r4, r4, [sp, #36]	; 0x24
 8000890:	e9cd 7607 	strd	r7, r6, [sp, #28]
 8000894:	f000 feca 	bl	800162c <HAL_GPIO_Init>
 8000898:	4835      	ldr	r0, [pc, #212]	; (8000970 <main+0x21c>)
 800089a:	4b36      	ldr	r3, [pc, #216]	; (8000974 <main+0x220>)
 800089c:	22e1      	movs	r2, #225	; 0xe1
 800089e:	6003      	str	r3, [r0, #0]
 80008a0:	6843      	ldr	r3, [r0, #4]
 80008a2:	701c      	strb	r4, [r3, #0]
 80008a4:	6843      	ldr	r3, [r0, #4]
 80008a6:	705d      	strb	r5, [r3, #1]
 80008a8:	6843      	ldr	r3, [r0, #4]
 80008aa:	4d33      	ldr	r5, [pc, #204]	; (8000978 <main+0x224>)
 80008ac:	709a      	strb	r2, [r3, #2]
 80008ae:	6843      	ldr	r3, [r0, #4]
 80008b0:	70dc      	strb	r4, [r3, #3]
 80008b2:	6843      	ldr	r3, [r0, #4]
 80008b4:	711c      	strb	r4, [r3, #4]
 80008b6:	6843      	ldr	r3, [r0, #4]
 80008b8:	715c      	strb	r4, [r3, #5]
 80008ba:	4b30      	ldr	r3, [pc, #192]	; (800097c <main+0x228>)
 80008bc:	7206      	strb	r6, [r0, #8]
 80008be:	60c3      	str	r3, [r0, #12]
 80008c0:	4b2f      	ldr	r3, [pc, #188]	; (8000980 <main+0x22c>)
 80008c2:	6103      	str	r3, [r0, #16]
 80008c4:	f240 53f4 	movw	r3, #1524	; 0x5f4
 80008c8:	6143      	str	r3, [r0, #20]
 80008ca:	f000 fd91 	bl	80013f0 <HAL_ETH_Init>
 80008ce:	4b2d      	ldr	r3, [pc, #180]	; (8000984 <main+0x230>)
 80008d0:	4621      	mov	r1, r4
 80008d2:	2230      	movs	r2, #48	; 0x30
 80008d4:	4618      	mov	r0, r3
 80008d6:	f003 f9d5 	bl	8003c84 <memset>
 80008da:	2221      	movs	r2, #33	; 0x21
 80008dc:	f44f 33e1 	mov.w	r3, #115200	; 0x1c200
 80008e0:	612c      	str	r4, [r5, #16]
 80008e2:	f840 2c04 	str.w	r2, [r0, #-4]
 80008e6:	f44f 3240 	mov.w	r2, #196608	; 0x30000
 80008ea:	6102      	str	r2, [r0, #16]
 80008ec:	4826      	ldr	r0, [pc, #152]	; (8000988 <main+0x234>)
 80008ee:	e9c5 0300 	strd	r0, r3, [r5]
 80008f2:	230c      	movs	r3, #12
 80008f4:	4628      	mov	r0, r5
 80008f6:	e9c5 3405 	strd	r3, r4, [r5, #20]
 80008fa:	e9c5 4402 	strd	r4, r4, [r5, #8]
 80008fe:	e9c5 4407 	strd	r4, r4, [r5, #28]
 8000902:	e9c5 4409 	strd	r4, r4, [r5, #36]	; 0x24
 8000906:	f002 ff62 	bl	80037ce <HAL_UART_Init>
 800090a:	4621      	mov	r1, r4
 800090c:	4628      	mov	r0, r5
 800090e:	f002 ffe3 	bl	80038d8 <HAL_UARTEx_SetTxFifoThreshold>
 8000912:	4621      	mov	r1, r4
 8000914:	4628      	mov	r0, r5
 8000916:	f003 f803 	bl	8003920 <HAL_UARTEx_SetRxFifoThreshold>
 800091a:	4628      	mov	r0, r5
 800091c:	f002 ffc1 	bl	80038a2 <HAL_UARTEx_DisableFifoMode>
 8000920:	481a      	ldr	r0, [pc, #104]	; (800098c <main+0x238>)
 8000922:	2309      	movs	r3, #9
 8000924:	4d1a      	ldr	r5, [pc, #104]	; (8000990 <main+0x23c>)
 8000926:	6304      	str	r4, [r0, #48]	; 0x30
 8000928:	e9c0 7403 	strd	r7, r4, [r0, #12]
 800092c:	e9c0 4408 	strd	r4, r4, [r0, #32]
 8000930:	4c18      	ldr	r4, [pc, #96]	; (8000994 <main+0x240>)
 8000932:	e9c0 5300 	strd	r5, r3, [r0]
 8000936:	e9c0 7606 	strd	r7, r6, [r0, #24]
 800093a:	e9c0 660a 	strd	r6, r6, [r0, #40]	; 0x28
 800093e:	f000 ff64 	bl	800180a <HAL_PCD_Init>
 8000942:	4620      	mov	r0, r4
 8000944:	f003 f9a6 	bl	8003c94 <iprintf>
 8000948:	f44f 707a 	mov.w	r0, #1000	; 0x3e8
 800094c:	f000 fab0 	bl	8000eb0 <HAL_Delay>
 8000950:	e7f7      	b.n	8000942 <main+0x1ee>
 8000952:	bf00      	nop
 8000954:	58024400 	.word	0x58024400
 8000958:	58020400 	.word	0x58020400
 800095c:	58020c00 	.word	0x58020c00
 8000960:	58021000 	.word	0x58021000
 8000964:	58020800 	.word	0x58020800
 8000968:	11110000 	.word	0x11110000
 800096c:	58021800 	.word	0x58021800
 8000970:	240005f0 	.word	0x240005f0
 8000974:	40028000 	.word	0x40028000
 8000978:	2400015c 	.word	0x2400015c
 800097c:	240000d4 	.word	0x240000d4
 8000980:	24000074 	.word	0x24000074
 8000984:	24000664 	.word	0x24000664
 8000988:	40004800 	.word	0x40004800
 800098c:	240001e8 	.word	0x240001e8
 8000990:	40080000 	.word	0x40080000
 8000994:	08004a74 	.word	0x08004a74

08000998 <__io_putchar>:
 8000998:	b507      	push	{r0, r1, r2, lr}
 800099a:	a902      	add	r1, sp, #8
 800099c:	f04f 33ff 	mov.w	r3, #4294967295
 80009a0:	2201      	movs	r2, #1
 80009a2:	f841 0d04 	str.w	r0, [r1, #-4]!
 80009a6:	4803      	ldr	r0, [pc, #12]	; (80009b4 <__io_putchar+0x1c>)
 80009a8:	f002 fe82 	bl	80036b0 <HAL_UART_Transmit>
 80009ac:	9801      	ldr	r0, [sp, #4]
 80009ae:	b003      	add	sp, #12
 80009b0:	f85d fb04 	ldr.w	pc, [sp], #4
 80009b4:	2400015c 	.word	0x2400015c

080009b8 <HAL_MspInit>:
 80009b8:	4b07      	ldr	r3, [pc, #28]	; (80009d8 <HAL_MspInit+0x20>)
 80009ba:	b082      	sub	sp, #8
 80009bc:	f8d3 20f4 	ldr.w	r2, [r3, #244]	; 0xf4
 80009c0:	f042 0202 	orr.w	r2, r2, #2
 80009c4:	f8c3 20f4 	str.w	r2, [r3, #244]	; 0xf4
 80009c8:	f8d3 30f4 	ldr.w	r3, [r3, #244]	; 0xf4
 80009cc:	f003 0302 	and.w	r3, r3, #2
 80009d0:	9301      	str	r3, [sp, #4]
 80009d2:	9b01      	ldr	r3, [sp, #4]
 80009d4:	b002      	add	sp, #8
 80009d6:	4770      	bx	lr
 80009d8:	58024400 	.word	0x58024400

080009dc <HAL_ETH_MspInit>:
 80009dc:	b570      	push	{r4, r5, r6, lr}
 80009de:	b08c      	sub	sp, #48	; 0x30
 80009e0:	4604      	mov	r4, r0
 80009e2:	2214      	movs	r2, #20
 80009e4:	2100      	movs	r1, #0
 80009e6:	a807      	add	r0, sp, #28
 80009e8:	f003 f94c 	bl	8003c84 <memset>
 80009ec:	6822      	ldr	r2, [r4, #0]
 80009ee:	4b42      	ldr	r3, [pc, #264]	; (8000af8 <HAL_ETH_MspInit+0x11c>)
 80009f0:	429a      	cmp	r2, r3
 80009f2:	d17f      	bne.n	8000af4 <HAL_ETH_MspInit+0x118>
 80009f4:	4b41      	ldr	r3, [pc, #260]	; (8000afc <HAL_ETH_MspInit+0x120>)
 80009f6:	2602      	movs	r6, #2
 80009f8:	250b      	movs	r5, #11
 80009fa:	a907      	add	r1, sp, #28
 80009fc:	f8d3 20d8 	ldr.w	r2, [r3, #216]	; 0xd8
 8000a00:	2400      	movs	r4, #0
 8000a02:	483f      	ldr	r0, [pc, #252]	; (8000b00 <HAL_ETH_MspInit+0x124>)
 8000a04:	f442 4200 	orr.w	r2, r2, #32768	; 0x8000
 8000a08:	f8c3 20d8 	str.w	r2, [r3, #216]	; 0xd8
 8000a0c:	f8d3 20d8 	ldr.w	r2, [r3, #216]	; 0xd8
 8000a10:	f402 4200 	and.w	r2, r2, #32768	; 0x8000
 8000a14:	9200      	str	r2, [sp, #0]
 8000a16:	9a00      	ldr	r2, [sp, #0]
 8000a18:	f8d3 20d8 	ldr.w	r2, [r3, #216]	; 0xd8
 8000a1c:	f442 3280 	orr.w	r2, r2, #65536	; 0x10000
 8000a20:	f8c3 20d8 	str.w	r2, [r3, #216]	; 0xd8
 8000a24:	f8d3 20d8 	ldr.w	r2, [r3, #216]	; 0xd8
 8000a28:	f402 3280 	and.w	r2, r2, #65536	; 0x10000
 8000a2c:	9201      	str	r2, [sp, #4]
 8000a2e:	9a01      	ldr	r2, [sp, #4]
 8000a30:	f8d3 20d8 	ldr.w	r2, [r3, #216]	; 0xd8
 8000a34:	f442 3200 	orr.w	r2, r2, #131072	; 0x20000
 8000a38:	f8c3 20d8 	str.w	r2, [r3, #216]	; 0xd8
 8000a3c:	f8d3 20d8 	ldr.w	r2, [r3, #216]	; 0xd8
 8000a40:	f402 3200 	and.w	r2, r2, #131072	; 0x20000
 8000a44:	9202      	str	r2, [sp, #8]
 8000a46:	9a02      	ldr	r2, [sp, #8]
 8000a48:	f8d3 20e0 	ldr.w	r2, [r3, #224]	; 0xe0
 8000a4c:	f042 0204 	orr.w	r2, r2, #4
 8000a50:	f8c3 20e0 	str.w	r2, [r3, #224]	; 0xe0
 8000a54:	f8d3 20e0 	ldr.w	r2, [r3, #224]	; 0xe0
 8000a58:	f002 0204 	and.w	r2, r2, #4
 8000a5c:	9203      	str	r2, [sp, #12]
 8000a5e:	9a03      	ldr	r2, [sp, #12]
 8000a60:	f8d3 20e0 	ldr.w	r2, [r3, #224]	; 0xe0
 8000a64:	f042 0201 	orr.w	r2, r2, #1
 8000a68:	f8c3 20e0 	str.w	r2, [r3, #224]	; 0xe0
 8000a6c:	f8d3 20e0 	ldr.w	r2, [r3, #224]	; 0xe0
 8000a70:	f002 0201 	and.w	r2, r2, #1
 8000a74:	9204      	str	r2, [sp, #16]
 8000a76:	9a04      	ldr	r2, [sp, #16]
 8000a78:	f8d3 20e0 	ldr.w	r2, [r3, #224]	; 0xe0
 8000a7c:	f042 0202 	orr.w	r2, r2, #2
 8000a80:	f8c3 20e0 	str.w	r2, [r3, #224]	; 0xe0
 8000a84:	f8d3 20e0 	ldr.w	r2, [r3, #224]	; 0xe0
 8000a88:	f002 0202 	and.w	r2, r2, #2
 8000a8c:	9205      	str	r2, [sp, #20]
 8000a8e:	9a05      	ldr	r2, [sp, #20]
 8000a90:	f8d3 20e0 	ldr.w	r2, [r3, #224]	; 0xe0
 8000a94:	f042 0240 	orr.w	r2, r2, #64	; 0x40
 8000a98:	f8c3 20e0 	str.w	r2, [r3, #224]	; 0xe0
 8000a9c:	f8d3 30e0 	ldr.w	r3, [r3, #224]	; 0xe0
 8000aa0:	950b      	str	r5, [sp, #44]	; 0x2c
 8000aa2:	f003 0340 	and.w	r3, r3, #64	; 0x40
 8000aa6:	9306      	str	r3, [sp, #24]
 8000aa8:	9b06      	ldr	r3, [sp, #24]
 8000aaa:	2332      	movs	r3, #50	; 0x32
 8000aac:	e9cd 3607 	strd	r3, r6, [sp, #28]
 8000ab0:	f000 fdbc 	bl	800162c <HAL_GPIO_Init>
 8000ab4:	2386      	movs	r3, #134	; 0x86
 8000ab6:	a907      	add	r1, sp, #28
 8000ab8:	4812      	ldr	r0, [pc, #72]	; (8000b04 <HAL_ETH_MspInit+0x128>)
 8000aba:	950b      	str	r5, [sp, #44]	; 0x2c
 8000abc:	e9cd 3607 	strd	r3, r6, [sp, #28]
 8000ac0:	e9cd 4409 	strd	r4, r4, [sp, #36]	; 0x24
 8000ac4:	f000 fdb2 	bl	800162c <HAL_GPIO_Init>
 8000ac8:	f44f 5300 	mov.w	r3, #8192	; 0x2000
 8000acc:	a907      	add	r1, sp, #28
 8000ace:	480e      	ldr	r0, [pc, #56]	; (8000b08 <HAL_ETH_MspInit+0x12c>)
 8000ad0:	950b      	str	r5, [sp, #44]	; 0x2c
 8000ad2:	e9cd 3607 	strd	r3, r6, [sp, #28]
 8000ad6:	e9cd 4409 	strd	r4, r4, [sp, #36]	; 0x24
 8000ada:	f000 fda7 	bl	800162c <HAL_GPIO_Init>
 8000ade:	f44f 5320 	mov.w	r3, #10240	; 0x2800
 8000ae2:	a907      	add	r1, sp, #28
 8000ae4:	4809      	ldr	r0, [pc, #36]	; (8000b0c <HAL_ETH_MspInit+0x130>)
 8000ae6:	950b      	str	r5, [sp, #44]	; 0x2c
 8000ae8:	e9cd 3607 	strd	r3, r6, [sp, #28]
 8000aec:	e9cd 4409 	strd	r4, r4, [sp, #36]	; 0x24
 8000af0:	f000 fd9c 	bl	800162c <HAL_GPIO_Init>
 8000af4:	b00c      	add	sp, #48	; 0x30
 8000af6:	bd70      	pop	{r4, r5, r6, pc}
 8000af8:	40028000 	.word	0x40028000
 8000afc:	58024400 	.word	0x58024400
 8000b00:	58020800 	.word	0x58020800
 8000b04:	58020000 	.word	0x58020000
 8000b08:	58020400 	.word	0x58020400
 8000b0c:	58021800 	.word	0x58021800

08000b10 <HAL_UART_MspInit>:
 8000b10:	b510      	push	{r4, lr}
 8000b12:	b088      	sub	sp, #32
 8000b14:	4604      	mov	r4, r0
 8000b16:	2214      	movs	r2, #20
 8000b18:	2100      	movs	r1, #0
 8000b1a:	a803      	add	r0, sp, #12
 8000b1c:	f003 f8b2 	bl	8003c84 <memset>
 8000b20:	6822      	ldr	r2, [r4, #0]
 8000b22:	4b18      	ldr	r3, [pc, #96]	; (8000b84 <HAL_UART_MspInit+0x74>)
 8000b24:	429a      	cmp	r2, r3
 8000b26:	d12b      	bne.n	8000b80 <HAL_UART_MspInit+0x70>
 8000b28:	4b17      	ldr	r3, [pc, #92]	; (8000b88 <HAL_UART_MspInit+0x78>)
 8000b2a:	a903      	add	r1, sp, #12
 8000b2c:	4817      	ldr	r0, [pc, #92]	; (8000b8c <HAL_UART_MspInit+0x7c>)
 8000b2e:	f8d3 20e8 	ldr.w	r2, [r3, #232]	; 0xe8
 8000b32:	f442 2280 	orr.w	r2, r2, #262144	; 0x40000
 8000b36:	f8c3 20e8 	str.w	r2, [r3, #232]	; 0xe8
 8000b3a:	f8d3 20e8 	ldr.w	r2, [r3, #232]	; 0xe8
 8000b3e:	f402 2280 	and.w	r2, r2, #262144	; 0x40000
 8000b42:	9201      	str	r2, [sp, #4]
 8000b44:	9a01      	ldr	r2, [sp, #4]
 8000b46:	f8d3 20e0 	ldr.w	r2, [r3, #224]	; 0xe0
 8000b4a:	f042 0208 	orr.w	r2, r2, #8
 8000b4e:	f8c3 20e0 	str.w	r2, [r3, #224]	; 0xe0
 8000b52:	f44f 7240 	mov.w	r2, #768	; 0x300
 8000b56:	f8d3 30e0 	ldr.w	r3, [r3, #224]	; 0xe0
 8000b5a:	f003 0308 	and.w	r3, r3, #8
 8000b5e:	9302      	str	r3, [sp, #8]
 8000b60:	9b02      	ldr	r3, [sp, #8]
 8000b62:	2302      	movs	r3, #2
 8000b64:	e9cd 2303 	strd	r2, r3, [sp, #12]
 8000b68:	2307      	movs	r3, #7
 8000b6a:	9307      	str	r3, [sp, #28]
 8000b6c:	f000 fd5e 	bl	800162c <HAL_GPIO_Init>
 8000b70:	2200      	movs	r2, #0
 8000b72:	2027      	movs	r0, #39	; 0x27
 8000b74:	4611      	mov	r1, r2
 8000b76:	f000 f9cf 	bl	8000f18 <HAL_NVIC_SetPriority>
 8000b7a:	2027      	movs	r0, #39	; 0x27
 8000b7c:	f000 f9fe 	bl	8000f7c <HAL_NVIC_EnableIRQ>
 8000b80:	b008      	add	sp, #32
 8000b82:	bd10      	pop	{r4, pc}
 8000b84:	40004800 	.word	0x40004800
 8000b88:	58024400 	.word	0x58024400
 8000b8c:	58020c00 	.word	0x58020c00

08000b90 <HAL_PCD_MspInit>:
 8000b90:	b510      	push	{r4, lr}
 8000b92:	b088      	sub	sp, #32
 8000b94:	4604      	mov	r4, r0
 8000b96:	2214      	movs	r2, #20
 8000b98:	2100      	movs	r1, #0
 8000b9a:	a803      	add	r0, sp, #12
 8000b9c:	f003 f872 	bl	8003c84 <memset>
 8000ba0:	6822      	ldr	r2, [r4, #0]
 8000ba2:	4b19      	ldr	r3, [pc, #100]	; (8000c08 <HAL_PCD_MspInit+0x78>)
 8000ba4:	429a      	cmp	r2, r3
 8000ba6:	d12d      	bne.n	8000c04 <HAL_PCD_MspInit+0x74>
 8000ba8:	4c18      	ldr	r4, [pc, #96]	; (8000c0c <HAL_PCD_MspInit+0x7c>)
 8000baa:	f44f 52c8 	mov.w	r2, #6400	; 0x1900
 8000bae:	a903      	add	r1, sp, #12
 8000bb0:	4817      	ldr	r0, [pc, #92]	; (8000c10 <HAL_PCD_MspInit+0x80>)
 8000bb2:	f8d4 30e0 	ldr.w	r3, [r4, #224]	; 0xe0
 8000bb6:	f043 0301 	orr.w	r3, r3, #1
 8000bba:	f8c4 30e0 	str.w	r3, [r4, #224]	; 0xe0
 8000bbe:	f8d4 30e0 	ldr.w	r3, [r4, #224]	; 0xe0
 8000bc2:	f003 0301 	and.w	r3, r3, #1
 8000bc6:	9301      	str	r3, [sp, #4]
 8000bc8:	9b01      	ldr	r3, [sp, #4]
 8000bca:	2302      	movs	r3, #2
 8000bcc:	e9cd 2303 	strd	r2, r3, [sp, #12]
 8000bd0:	230a      	movs	r3, #10
 8000bd2:	9307      	str	r3, [sp, #28]
 8000bd4:	f000 fd2a 	bl	800162c <HAL_GPIO_Init>
 8000bd8:	2300      	movs	r3, #0
 8000bda:	f44f 7100 	mov.w	r1, #512	; 0x200
 8000bde:	480c      	ldr	r0, [pc, #48]	; (8000c10 <HAL_PCD_MspInit+0x80>)
 8000be0:	9305      	str	r3, [sp, #20]
 8000be2:	e9cd 1303 	strd	r1, r3, [sp, #12]
 8000be6:	a903      	add	r1, sp, #12
 8000be8:	f000 fd20 	bl	800162c <HAL_GPIO_Init>
 8000bec:	f8d4 30d8 	ldr.w	r3, [r4, #216]	; 0xd8
 8000bf0:	f043 6300 	orr.w	r3, r3, #134217728	; 0x8000000
 8000bf4:	f8c4 30d8 	str.w	r3, [r4, #216]	; 0xd8
 8000bf8:	f8d4 30d8 	ldr.w	r3, [r4, #216]	; 0xd8
 8000bfc:	f003 6300 	and.w	r3, r3, #134217728	; 0x8000000
 8000c00:	9302      	str	r3, [sp, #8]
 8000c02:	9b02      	ldr	r3, [sp, #8]
 8000c04:	b008      	add	sp, #32
 8000c06:	bd10      	pop	{r4, pc}
 8000c08:	40080000 	.word	0x40080000
 8000c0c:	58024400 	.word	0x58024400
 8000c10:	58020000 	.word	0x58020000

08000c14 <NMI_Handler>:
 8000c14:	4770      	bx	lr

08000c16 <HardFault_Handler>:
 8000c16:	e7fe      	b.n	8000c16 <HardFault_Handler>

08000c18 <MemManage_Handler>:
 8000c18:	e7fe      	b.n	8000c18 <MemManage_Handler>

08000c1a <BusFault_Handler>:
 8000c1a:	e7fe      	b.n	8000c1a <BusFault_Handler>

08000c1c <UsageFault_Handler>:
 8000c1c:	e7fe      	b.n	8000c1c <UsageFault_Handler>

08000c1e <SVC_Handler>:
 8000c1e:	4770      	bx	lr

08000c20 <DebugMon_Handler>:
 8000c20:	4770      	bx	lr

08000c22 <PendSV_Handler>:
 8000c22:	4770      	bx	lr

08000c24 <SysTick_Handler>:
 8000c24:	f000 b932 	b.w	8000e8c <HAL_IncTick>

08000c28 <USART3_IRQHandler>:
 8000c28:	4801      	ldr	r0, [pc, #4]	; (8000c30 <USART3_IRQHandler+0x8>)
 8000c2a:	f002 ba15 	b.w	8003058 <HAL_UART_IRQHandler>
 8000c2e:	bf00      	nop
 8000c30:	2400015c 	.word	0x2400015c

08000c34 <_read>:
 8000c34:	b570      	push	{r4, r5, r6, lr}
 8000c36:	460e      	mov	r6, r1
 8000c38:	4615      	mov	r5, r2
 8000c3a:	460c      	mov	r4, r1
 8000c3c:	1ba3      	subs	r3, r4, r6
 8000c3e:	429d      	cmp	r5, r3
 8000c40:	dc01      	bgt.n	8000c46 <_read+0x12>
 8000c42:	4628      	mov	r0, r5
 8000c44:	bd70      	pop	{r4, r5, r6, pc}
 8000c46:	f3af 8000 	nop.w
 8000c4a:	f804 0b01 	strb.w	r0, [r4], #1
 8000c4e:	e7f5      	b.n	8000c3c <_read+0x8>

08000c50 <_write>:
 8000c50:	b570      	push	{r4, r5, r6, lr}
 8000c52:	460e      	mov	r6, r1
 8000c54:	4615      	mov	r5, r2
 8000c56:	460c      	mov	r4, r1
 8000c58:	1ba3      	subs	r3, r4, r6
 8000c5a:	429d      	cmp	r5, r3
 8000c5c:	dc01      	bgt.n	8000c62 <_write+0x12>
 8000c5e:	4628      	mov	r0, r5
 8000c60:	bd70      	pop	{r4, r5, r6, pc}
 8000c62:	f814 0b01 	ldrb.w	r0, [r4], #1
 8000c66:	f7ff fe97 	bl	8000998 <__io_putchar>
 8000c6a:	e7f5      	b.n	8000c58 <_write+0x8>

08000c6c <_close>:
 8000c6c:	f04f 30ff 	mov.w	r0, #4294967295
 8000c70:	4770      	bx	lr

08000c72 <_fstat>:
 8000c72:	f44f 5300 	mov.w	r3, #8192	; 0x2000
 8000c76:	2000      	movs	r0, #0
 8000c78:	604b      	str	r3, [r1, #4]
 8000c7a:	4770      	bx	lr

08000c7c <_isatty>:
 8000c7c:	2001      	movs	r0, #1
 8000c7e:	4770      	bx	lr

08000c80 <_lseek>:
 8000c80:	2000      	movs	r0, #0
 8000c82:	4770      	bx	lr

08000c84 <_sbrk>:
 8000c84:	4b0b      	ldr	r3, [pc, #44]	; (8000cb4 <_sbrk+0x30>)
 8000c86:	4602      	mov	r2, r0
 8000c88:	6819      	ldr	r1, [r3, #0]
 8000c8a:	b510      	push	{r4, lr}
 8000c8c:	b909      	cbnz	r1, 8000c92 <_sbrk+0xe>
 8000c8e:	490a      	ldr	r1, [pc, #40]	; (8000cb8 <_sbrk+0x34>)
 8000c90:	6019      	str	r1, [r3, #0]
 8000c92:	6818      	ldr	r0, [r3, #0]
 8000c94:	4909      	ldr	r1, [pc, #36]	; (8000cbc <_sbrk+0x38>)
 8000c96:	4c0a      	ldr	r4, [pc, #40]	; (8000cc0 <_sbrk+0x3c>)
 8000c98:	4402      	add	r2, r0
 8000c9a:	1b09      	subs	r1, r1, r4
 8000c9c:	428a      	cmp	r2, r1
 8000c9e:	d906      	bls.n	8000cae <_sbrk+0x2a>
 8000ca0:	f002 ffc6 	bl	8003c30 <__errno>
 8000ca4:	230c      	movs	r3, #12
 8000ca6:	6003      	str	r3, [r0, #0]
 8000ca8:	f04f 30ff 	mov.w	r0, #4294967295
 8000cac:	bd10      	pop	{r4, pc}
 8000cae:	601a      	str	r2, [r3, #0]
 8000cb0:	e7fc      	b.n	8000cac <_sbrk+0x28>
 8000cb2:	bf00      	nop
 8000cb4:	24000150 	.word	0x24000150
 8000cb8:	240006a0 	.word	0x240006a0
 8000cbc:	24080000 	.word	0x24080000
 8000cc0:	00000400 	.word	0x00000400

08000cc4 <SystemInit>:
 8000cc4:	4a28      	ldr	r2, [pc, #160]	; (8000d68 <SystemInit+0xa4>)
 8000cc6:	f8d2 3088 	ldr.w	r3, [r2, #136]	; 0x88
 8000cca:	f443 0370 	orr.w	r3, r3, #15728640	; 0xf00000
 8000cce:	f8c2 3088 	str.w	r3, [r2, #136]	; 0x88
 8000cd2:	4a26      	ldr	r2, [pc, #152]	; (8000d6c <SystemInit+0xa8>)
 8000cd4:	6813      	ldr	r3, [r2, #0]
 8000cd6:	f003 030f 	and.w	r3, r3, #15
 8000cda:	2b06      	cmp	r3, #6
 8000cdc:	d805      	bhi.n	8000cea <SystemInit+0x26>
 8000cde:	6813      	ldr	r3, [r2, #0]
 8000ce0:	f023 030f 	bic.w	r3, r3, #15
 8000ce4:	f043 0307 	orr.w	r3, r3, #7
 8000ce8:	6013      	str	r3, [r2, #0]
 8000cea:	4b21      	ldr	r3, [pc, #132]	; (8000d70 <SystemInit+0xac>)
 8000cec:	681a      	ldr	r2, [r3, #0]
 8000cee:	f042 0201 	orr.w	r2, r2, #1
 8000cf2:	601a      	str	r2, [r3, #0]
 8000cf4:	2200      	movs	r2, #0
 8000cf6:	611a      	str	r2, [r3, #16]
 8000cf8:	4a1e      	ldr	r2, [pc, #120]	; (8000d74 <SystemInit+0xb0>)
 8000cfa:	6819      	ldr	r1, [r3, #0]
 8000cfc:	400a      	ands	r2, r1
 8000cfe:	491b      	ldr	r1, [pc, #108]	; (8000d6c <SystemInit+0xa8>)
 8000d00:	601a      	str	r2, [r3, #0]
 8000d02:	680a      	ldr	r2, [r1, #0]
 8000d04:	f002 020f 	and.w	r2, r2, #15
 8000d08:	2a07      	cmp	r2, #7
 8000d0a:	d905      	bls.n	8000d18 <SystemInit+0x54>
 8000d0c:	680a      	ldr	r2, [r1, #0]
 8000d0e:	f022 020f 	bic.w	r2, r2, #15
 8000d12:	f042 0207 	orr.w	r2, r2, #7
 8000d16:	600a      	str	r2, [r1, #0]
 8000d18:	2200      	movs	r2, #0
 8000d1a:	4917      	ldr	r1, [pc, #92]	; (8000d78 <SystemInit+0xb4>)
 8000d1c:	619a      	str	r2, [r3, #24]
 8000d1e:	61da      	str	r2, [r3, #28]
 8000d20:	621a      	str	r2, [r3, #32]
 8000d22:	6299      	str	r1, [r3, #40]	; 0x28
 8000d24:	4915      	ldr	r1, [pc, #84]	; (8000d7c <SystemInit+0xb8>)
 8000d26:	62d9      	str	r1, [r3, #44]	; 0x2c
 8000d28:	4915      	ldr	r1, [pc, #84]	; (8000d80 <SystemInit+0xbc>)
 8000d2a:	6319      	str	r1, [r3, #48]	; 0x30
 8000d2c:	635a      	str	r2, [r3, #52]	; 0x34
 8000d2e:	6399      	str	r1, [r3, #56]	; 0x38
 8000d30:	63da      	str	r2, [r3, #60]	; 0x3c
 8000d32:	6419      	str	r1, [r3, #64]	; 0x40
 8000d34:	645a      	str	r2, [r3, #68]	; 0x44
 8000d36:	6819      	ldr	r1, [r3, #0]
 8000d38:	f421 2180 	bic.w	r1, r1, #262144	; 0x40000
 8000d3c:	6019      	str	r1, [r3, #0]
 8000d3e:	661a      	str	r2, [r3, #96]	; 0x60
 8000d40:	4b10      	ldr	r3, [pc, #64]	; (8000d84 <SystemInit+0xc0>)
 8000d42:	681b      	ldr	r3, [r3, #0]
 8000d44:	0c1b      	lsrs	r3, r3, #16
 8000d46:	041b      	lsls	r3, r3, #16
 8000d48:	f1b3 5f00 	cmp.w	r3, #536870912	; 0x20000000
 8000d4c:	d202      	bcs.n	8000d54 <SystemInit+0x90>
 8000d4e:	4b0e      	ldr	r3, [pc, #56]	; (8000d88 <SystemInit+0xc4>)
 8000d50:	2201      	movs	r2, #1
 8000d52:	601a      	str	r2, [r3, #0]
 8000d54:	4b0d      	ldr	r3, [pc, #52]	; (8000d8c <SystemInit+0xc8>)
 8000d56:	f243 02d2 	movw	r2, #12498	; 0x30d2
 8000d5a:	601a      	str	r2, [r3, #0]
 8000d5c:	f04f 6200 	mov.w	r2, #134217728	; 0x8000000
 8000d60:	4b01      	ldr	r3, [pc, #4]	; (8000d68 <SystemInit+0xa4>)
 8000d62:	609a      	str	r2, [r3, #8]
 8000d64:	4770      	bx	lr
 8000d66:	bf00      	nop
 8000d68:	e000ed00 	.word	0xe000ed00
 8000d6c:	52002000 	.word	0x52002000
 8000d70:	58024400 	.word	0x58024400
 8000d74:	eaf6ed7f 	.word	0xeaf6ed7f
 8000d78:	02020200 	.word	0x02020200
 8000d7c:	01ff0000 	.word	0x01ff0000
 8000d80:	01010280 	.word	0x01010280
 8000d84:	5c001000 	.word	0x5c001000
 8000d88:	51008108 	.word	0x51008108
 8000d8c:	52004000 	.word	0x52004000

08000d90 <Reset_Handler>:
 8000d90:	f8df d034 	ldr.w	sp, [pc, #52]	; 8000dc8 <LoopFillZerobss+0x10>
 8000d94:	f7ff ff96 	bl	8000cc4 <SystemInit>
 8000d98:	2100      	movs	r1, #0
 8000d9a:	e003      	b.n	8000da4 <LoopCopyDataInit>

08000d9c <CopyDataInit>:
 8000d9c:	4b0b      	ldr	r3, [pc, #44]	; (8000dcc <LoopFillZerobss+0x14>)
 8000d9e:	585b      	ldr	r3, [r3, r1]
 8000da0:	5043      	str	r3, [r0, r1]
 8000da2:	3104      	adds	r1, #4

08000da4 <LoopCopyDataInit>:
 8000da4:	480a      	ldr	r0, [pc, #40]	; (8000dd0 <LoopFillZerobss+0x18>)
 8000da6:	4b0b      	ldr	r3, [pc, #44]	; (8000dd4 <LoopFillZerobss+0x1c>)
 8000da8:	1842      	adds	r2, r0, r1
 8000daa:	429a      	cmp	r2, r3
 8000dac:	d3f6      	bcc.n	8000d9c <CopyDataInit>
 8000dae:	4a0a      	ldr	r2, [pc, #40]	; (8000dd8 <LoopFillZerobss+0x20>)
 8000db0:	e002      	b.n	8000db8 <LoopFillZerobss>

08000db2 <FillZerobss>:
 8000db2:	2300      	movs	r3, #0
 8000db4:	f842 3b04 	str.w	r3, [r2], #4

08000db8 <LoopFillZerobss>:
 8000db8:	4b08      	ldr	r3, [pc, #32]	; (8000ddc <LoopFillZerobss+0x24>)
 8000dba:	429a      	cmp	r2, r3
 8000dbc:	d3f9      	bcc.n	8000db2 <FillZerobss>
 8000dbe:	f002 ff3d 	bl	8003c3c <__libc_init_array>
 8000dc2:	f7ff fcc7 	bl	8000754 <main>
 8000dc6:	4770      	bx	lr
 8000dc8:	24080000 	.word	0x24080000
 8000dcc:	08004b84 	.word	0x08004b84
 8000dd0:	24000000 	.word	0x24000000
 8000dd4:	24000074 	.word	0x24000074
 8000dd8:	24000134 	.word	0x24000134
 8000ddc:	2400069c 	.word	0x2400069c

08000de0 <ADC3_IRQHandler>:
 8000de0:	e7fe      	b.n	8000de0 <ADC3_IRQHandler>
	...

08000de4 <HAL_InitTick>:
 8000de4:	b538      	push	{r3, r4, r5, lr}
 8000de6:	4b0f      	ldr	r3, [pc, #60]	; (8000e24 <HAL_InitTick+0x40>)
 8000de8:	4605      	mov	r5, r0
 8000dea:	7818      	ldrb	r0, [r3, #0]
 8000dec:	b908      	cbnz	r0, 8000df2 <HAL_InitTick+0xe>
 8000dee:	2001      	movs	r0, #1
 8000df0:	bd38      	pop	{r3, r4, r5, pc}
 8000df2:	f44f 737a 	mov.w	r3, #1000	; 0x3e8
 8000df6:	4a0c      	ldr	r2, [pc, #48]	; (8000e28 <HAL_InitTick+0x44>)
 8000df8:	fbb3 f3f0 	udiv	r3, r3, r0
 8000dfc:	6810      	ldr	r0, [r2, #0]
 8000dfe:	fbb0 f0f3 	udiv	r0, r0, r3
 8000e02:	f000 f8c9 	bl	8000f98 <HAL_SYSTICK_Config>
 8000e06:	4604      	mov	r4, r0
 8000e08:	2800      	cmp	r0, #0
 8000e0a:	d1f0      	bne.n	8000dee <HAL_InitTick+0xa>
 8000e0c:	2d0f      	cmp	r5, #15
 8000e0e:	d8ee      	bhi.n	8000dee <HAL_InitTick+0xa>
 8000e10:	4602      	mov	r2, r0
 8000e12:	4629      	mov	r1, r5
 8000e14:	f04f 30ff 	mov.w	r0, #4294967295
 8000e18:	f000 f87e 	bl	8000f18 <HAL_NVIC_SetPriority>
 8000e1c:	4b03      	ldr	r3, [pc, #12]	; (8000e2c <HAL_InitTick+0x48>)
 8000e1e:	4620      	mov	r0, r4
 8000e20:	601d      	str	r5, [r3, #0]
 8000e22:	e7e5      	b.n	8000df0 <HAL_InitTick+0xc>
 8000e24:	24000008 	.word	0x24000008
 8000e28:	24000000 	.word	0x24000000
 8000e2c:	2400000c 	.word	0x2400000c

08000e30 <HAL_Init>:
 8000e30:	b510      	push	{r4, lr}
 8000e32:	2003      	movs	r0, #3
 8000e34:	f000 f85e 	bl	8000ef4 <HAL_NVIC_SetPriorityGrouping>
 8000e38:	f001 f846 	bl	8001ec8 <HAL_RCC_GetSysClockFreq>
 8000e3c:	490f      	ldr	r1, [pc, #60]	; (8000e7c <HAL_Init+0x4c>)
 8000e3e:	4a10      	ldr	r2, [pc, #64]	; (8000e80 <HAL_Init+0x50>)
 8000e40:	698b      	ldr	r3, [r1, #24]
 8000e42:	f3c3 2303 	ubfx	r3, r3, #8, #4
 8000e46:	5cd3      	ldrb	r3, [r2, r3]
 8000e48:	f003 031f 	and.w	r3, r3, #31
 8000e4c:	40d8      	lsrs	r0, r3
 8000e4e:	698b      	ldr	r3, [r1, #24]
 8000e50:	f003 030f 	and.w	r3, r3, #15
 8000e54:	5cd3      	ldrb	r3, [r2, r3]
 8000e56:	4a0b      	ldr	r2, [pc, #44]	; (8000e84 <HAL_Init+0x54>)
 8000e58:	f003 031f 	and.w	r3, r3, #31
 8000e5c:	fa20 f303 	lsr.w	r3, r0, r3
 8000e60:	6013      	str	r3, [r2, #0]
 8000e62:	4b09      	ldr	r3, [pc, #36]	; (8000e88 <HAL_Init+0x58>)
 8000e64:	6018      	str	r0, [r3, #0]
 8000e66:	2000      	movs	r0, #0
 8000e68:	f7ff ffbc 	bl	8000de4 <HAL_InitTick>
 8000e6c:	4604      	mov	r4, r0
 8000e6e:	b918      	cbnz	r0, 8000e78 <HAL_Init+0x48>
 8000e70:	f7ff fda2 	bl	80009b8 <HAL_MspInit>
 8000e74:	4620      	mov	r0, r4
 8000e76:	bd10      	pop	{r4, pc}
 8000e78:	2401      	movs	r4, #1
 8000e7a:	e7fb      	b.n	8000e74 <HAL_Init+0x44>
 8000e7c:	58024400 	.word	0x58024400
 8000e80:	08004a7c 	.word	0x08004a7c
 8000e84:	24000004 	.word	0x24000004
 8000e88:	24000000 	.word	0x24000000

08000e8c <HAL_IncTick>:
 8000e8c:	4a03      	ldr	r2, [pc, #12]	; (8000e9c <HAL_IncTick+0x10>)
 8000e8e:	4b04      	ldr	r3, [pc, #16]	; (8000ea0 <HAL_IncTick+0x14>)
 8000e90:	6811      	ldr	r1, [r2, #0]
 8000e92:	781b      	ldrb	r3, [r3, #0]
 8000e94:	440b      	add	r3, r1
 8000e96:	6013      	str	r3, [r2, #0]
 8000e98:	4770      	bx	lr
 8000e9a:	bf00      	nop
 8000e9c:	24000694 	.word	0x24000694
 8000ea0:	24000008 	.word	0x24000008

08000ea4 <HAL_GetTick>:
 8000ea4:	4b01      	ldr	r3, [pc, #4]	; (8000eac <HAL_GetTick+0x8>)
 8000ea6:	6818      	ldr	r0, [r3, #0]
 8000ea8:	4770      	bx	lr
 8000eaa:	bf00      	nop
 8000eac:	24000694 	.word	0x24000694

08000eb0 <HAL_Delay>:
 8000eb0:	b538      	push	{r3, r4, r5, lr}
 8000eb2:	4604      	mov	r4, r0
 8000eb4:	f7ff fff6 	bl	8000ea4 <HAL_GetTick>
 8000eb8:	4605      	mov	r5, r0
 8000eba:	1c63      	adds	r3, r4, #1
 8000ebc:	bf1e      	ittt	ne
 8000ebe:	4b04      	ldrne	r3, [pc, #16]	; (8000ed0 <HAL_Delay+0x20>)
 8000ec0:	781b      	ldrbne	r3, [r3, #0]
 8000ec2:	18e4      	addne	r4, r4, r3
 8000ec4:	f7ff ffee 	bl	8000ea4 <HAL_GetTick>
 8000ec8:	1b40      	subs	r0, r0, r5
 8000eca:	42a0      	cmp	r0, r4
 8000ecc:	d3fa      	bcc.n	8000ec4 <HAL_Delay+0x14>
 8000ece:	bd38      	pop	{r3, r4, r5, pc}
 8000ed0:	24000008 	.word	0x24000008

08000ed4 <HAL_GetREVID>:
 8000ed4:	4b01      	ldr	r3, [pc, #4]	; (8000edc <HAL_GetREVID+0x8>)
 8000ed6:	6818      	ldr	r0, [r3, #0]
 8000ed8:	0c00      	lsrs	r0, r0, #16
 8000eda:	4770      	bx	lr
 8000edc:	5c001000 	.word	0x5c001000

08000ee0 <HAL_SYSCFG_ETHInterfaceSelect>:
 8000ee0:	4a03      	ldr	r2, [pc, #12]	; (8000ef0 <HAL_SYSCFG_ETHInterfaceSelect+0x10>)
 8000ee2:	6853      	ldr	r3, [r2, #4]
 8000ee4:	f423 0360 	bic.w	r3, r3, #14680064	; 0xe00000
 8000ee8:	4318      	orrs	r0, r3
 8000eea:	6050      	str	r0, [r2, #4]
 8000eec:	4770      	bx	lr
 8000eee:	bf00      	nop
 8000ef0:	58000400 	.word	0x58000400

08000ef4 <HAL_NVIC_SetPriorityGrouping>:
 8000ef4:	4a07      	ldr	r2, [pc, #28]	; (8000f14 <HAL_NVIC_SetPriorityGrouping+0x20>)
 8000ef6:	0200      	lsls	r0, r0, #8
 8000ef8:	68d3      	ldr	r3, [r2, #12]
 8000efa:	f400 60e0 	and.w	r0, r0, #1792	; 0x700
 8000efe:	f423 63e0 	bic.w	r3, r3, #1792	; 0x700
 8000f02:	041b      	lsls	r3, r3, #16
 8000f04:	0c1b      	lsrs	r3, r3, #16
 8000f06:	f043 63bf 	orr.w	r3, r3, #100139008	; 0x5f80000
 8000f0a:	f443 3300 	orr.w	r3, r3, #131072	; 0x20000
 8000f0e:	4303      	orrs	r3, r0
 8000f10:	60d3      	str	r3, [r2, #12]
 8000f12:	4770      	bx	lr
 8000f14:	e000ed00 	.word	0xe000ed00

08000f18 <HAL_NVIC_SetPriority>:
 8000f18:	4b16      	ldr	r3, [pc, #88]	; (8000f74 <HAL_NVIC_SetPriority+0x5c>)
 8000f1a:	b570      	push	{r4, r5, r6, lr}
 8000f1c:	68dc      	ldr	r4, [r3, #12]
 8000f1e:	f04f 36ff 	mov.w	r6, #4294967295
 8000f22:	f3c4 2402 	ubfx	r4, r4, #8, #3
 8000f26:	f1c4 0507 	rsb	r5, r4, #7
 8000f2a:	1d23      	adds	r3, r4, #4
 8000f2c:	2d04      	cmp	r5, #4
 8000f2e:	bf28      	it	cs
 8000f30:	2504      	movcs	r5, #4
 8000f32:	2b06      	cmp	r3, #6
 8000f34:	fa06 f305 	lsl.w	r3, r6, r5
 8000f38:	bf8c      	ite	hi
 8000f3a:	3c03      	subhi	r4, #3
 8000f3c:	2400      	movls	r4, #0
 8000f3e:	2800      	cmp	r0, #0
 8000f40:	ea21 0303 	bic.w	r3, r1, r3
 8000f44:	fa03 f304 	lsl.w	r3, r3, r4
 8000f48:	fa06 f404 	lsl.w	r4, r6, r4
 8000f4c:	ea22 0404 	bic.w	r4, r2, r4
 8000f50:	ea43 0304 	orr.w	r3, r3, r4
 8000f54:	ea4f 1303 	mov.w	r3, r3, lsl #4
 8000f58:	b2db      	uxtb	r3, r3
 8000f5a:	db06      	blt.n	8000f6a <HAL_NVIC_SetPriority+0x52>
 8000f5c:	f100 4060 	add.w	r0, r0, #3758096384	; 0xe0000000
 8000f60:	f500 4061 	add.w	r0, r0, #57600	; 0xe100
 8000f64:	f880 3300 	strb.w	r3, [r0, #768]	; 0x300
 8000f68:	bd70      	pop	{r4, r5, r6, pc}
 8000f6a:	f000 000f 	and.w	r0, r0, #15
 8000f6e:	4a02      	ldr	r2, [pc, #8]	; (8000f78 <HAL_NVIC_SetPriority+0x60>)
 8000f70:	5413      	strb	r3, [r2, r0]
 8000f72:	e7f9      	b.n	8000f68 <HAL_NVIC_SetPriority+0x50>
 8000f74:	e000ed00 	.word	0xe000ed00
 8000f78:	e000ed14 	.word	0xe000ed14

08000f7c <HAL_NVIC_EnableIRQ>:
 8000f7c:	2800      	cmp	r0, #0
 8000f7e:	db08      	blt.n	8000f92 <HAL_NVIC_EnableIRQ+0x16>
 8000f80:	0942      	lsrs	r2, r0, #5
 8000f82:	2301      	movs	r3, #1
 8000f84:	f000 001f 	and.w	r0, r0, #31
 8000f88:	fa03 f000 	lsl.w	r0, r3, r0
 8000f8c:	4b01      	ldr	r3, [pc, #4]	; (8000f94 <HAL_NVIC_EnableIRQ+0x18>)
 8000f8e:	f843 0022 	str.w	r0, [r3, r2, lsl #2]
 8000f92:	4770      	bx	lr
 8000f94:	e000e100 	.word	0xe000e100

08000f98 <HAL_SYSTICK_Config>:
 8000f98:	3801      	subs	r0, #1
 8000f9a:	f1b0 7f80 	cmp.w	r0, #16777216	; 0x1000000
 8000f9e:	d20a      	bcs.n	8000fb6 <HAL_SYSTICK_Config+0x1e>
 8000fa0:	4b06      	ldr	r3, [pc, #24]	; (8000fbc <HAL_SYSTICK_Config+0x24>)
 8000fa2:	21f0      	movs	r1, #240	; 0xf0
 8000fa4:	4a06      	ldr	r2, [pc, #24]	; (8000fc0 <HAL_SYSTICK_Config+0x28>)
 8000fa6:	6058      	str	r0, [r3, #4]
 8000fa8:	2000      	movs	r0, #0
 8000faa:	f882 1023 	strb.w	r1, [r2, #35]	; 0x23
 8000fae:	2207      	movs	r2, #7
 8000fb0:	6098      	str	r0, [r3, #8]
 8000fb2:	601a      	str	r2, [r3, #0]
 8000fb4:	4770      	bx	lr
 8000fb6:	2001      	movs	r0, #1
 8000fb8:	4770      	bx	lr
 8000fba:	bf00      	nop
 8000fbc:	e000e010 	.word	0xe000e010
 8000fc0:	e000ed00 	.word	0xe000ed00

08000fc4 <HAL_DMA_Abort_IT>:
 8000fc4:	b510      	push	{r4, lr}
 8000fc6:	b128      	cbz	r0, 8000fd4 <HAL_DMA_Abort_IT+0x10>
 8000fc8:	f890 3035 	ldrb.w	r3, [r0, #53]	; 0x35
 8000fcc:	2b02      	cmp	r3, #2
 8000fce:	d003      	beq.n	8000fd8 <HAL_DMA_Abort_IT+0x14>
 8000fd0:	2380      	movs	r3, #128	; 0x80
 8000fd2:	6543      	str	r3, [r0, #84]	; 0x54
 8000fd4:	2001      	movs	r0, #1
 8000fd6:	e07f      	b.n	80010d8 <HAL_DMA_Abort_IT+0x114>
 8000fd8:	6803      	ldr	r3, [r0, #0]
 8000fda:	4a50      	ldr	r2, [pc, #320]	; (800111c <HAL_DMA_Abort_IT+0x158>)
 8000fdc:	4293      	cmp	r3, r2
 8000fde:	d052      	beq.n	8001086 <HAL_DMA_Abort_IT+0xc2>
 8000fe0:	494f      	ldr	r1, [pc, #316]	; (8001120 <HAL_DMA_Abort_IT+0x15c>)
 8000fe2:	428b      	cmp	r3, r1
 8000fe4:	d04f      	beq.n	8001086 <HAL_DMA_Abort_IT+0xc2>
 8000fe6:	3118      	adds	r1, #24
 8000fe8:	428b      	cmp	r3, r1
 8000fea:	d04c      	beq.n	8001086 <HAL_DMA_Abort_IT+0xc2>
 8000fec:	3118      	adds	r1, #24
 8000fee:	428b      	cmp	r3, r1
 8000ff0:	d049      	beq.n	8001086 <HAL_DMA_Abort_IT+0xc2>
 8000ff2:	3118      	adds	r1, #24
 8000ff4:	428b      	cmp	r3, r1
 8000ff6:	d046      	beq.n	8001086 <HAL_DMA_Abort_IT+0xc2>
 8000ff8:	3118      	adds	r1, #24
 8000ffa:	428b      	cmp	r3, r1
 8000ffc:	d043      	beq.n	8001086 <HAL_DMA_Abort_IT+0xc2>
 8000ffe:	3118      	adds	r1, #24
 8001000:	428b      	cmp	r3, r1
 8001002:	d040      	beq.n	8001086 <HAL_DMA_Abort_IT+0xc2>
 8001004:	3118      	adds	r1, #24
 8001006:	428b      	cmp	r3, r1
 8001008:	d03d      	beq.n	8001086 <HAL_DMA_Abort_IT+0xc2>
 800100a:	f501 7156 	add.w	r1, r1, #856	; 0x358
 800100e:	428b      	cmp	r3, r1
 8001010:	d039      	beq.n	8001086 <HAL_DMA_Abort_IT+0xc2>
 8001012:	3118      	adds	r1, #24
 8001014:	428b      	cmp	r3, r1
 8001016:	d036      	beq.n	8001086 <HAL_DMA_Abort_IT+0xc2>
 8001018:	3118      	adds	r1, #24
 800101a:	428b      	cmp	r3, r1
 800101c:	d033      	beq.n	8001086 <HAL_DMA_Abort_IT+0xc2>
 800101e:	3118      	adds	r1, #24
 8001020:	428b      	cmp	r3, r1
 8001022:	d030      	beq.n	8001086 <HAL_DMA_Abort_IT+0xc2>
 8001024:	3118      	adds	r1, #24
 8001026:	428b      	cmp	r3, r1
 8001028:	d02d      	beq.n	8001086 <HAL_DMA_Abort_IT+0xc2>
 800102a:	3118      	adds	r1, #24
 800102c:	428b      	cmp	r3, r1
 800102e:	d02a      	beq.n	8001086 <HAL_DMA_Abort_IT+0xc2>
 8001030:	3118      	adds	r1, #24
 8001032:	428b      	cmp	r3, r1
 8001034:	d027      	beq.n	8001086 <HAL_DMA_Abort_IT+0xc2>
 8001036:	3118      	adds	r1, #24
 8001038:	428b      	cmp	r3, r1
 800103a:	d024      	beq.n	8001086 <HAL_DMA_Abort_IT+0xc2>
 800103c:	681a      	ldr	r2, [r3, #0]
 800103e:	f022 020e 	bic.w	r2, r2, #14
 8001042:	601a      	str	r2, [r3, #0]
 8001044:	681a      	ldr	r2, [r3, #0]
 8001046:	f022 0201 	bic.w	r2, r2, #1
 800104a:	601a      	str	r2, [r3, #0]
 800104c:	4a35      	ldr	r2, [pc, #212]	; (8001124 <HAL_DMA_Abort_IT+0x160>)
 800104e:	4293      	cmp	r3, r2
 8001050:	d143      	bne.n	80010da <HAL_DMA_Abort_IT+0x116>
 8001052:	6e02      	ldr	r2, [r0, #96]	; 0x60
 8001054:	6813      	ldr	r3, [r2, #0]
 8001056:	f423 7380 	bic.w	r3, r3, #256	; 0x100
 800105a:	6013      	str	r3, [r2, #0]
 800105c:	e9d0 1316 	ldrd	r1, r3, [r0, #88]	; 0x58
 8001060:	f003 021f 	and.w	r2, r3, #31
 8001064:	2301      	movs	r3, #1
 8001066:	4093      	lsls	r3, r2
 8001068:	604b      	str	r3, [r1, #4]
 800106a:	e9d0 3219 	ldrd	r3, r2, [r0, #100]	; 0x64
 800106e:	605a      	str	r2, [r3, #4]
 8001070:	6ec3      	ldr	r3, [r0, #108]	; 0x6c
 8001072:	2b00      	cmp	r3, #0
 8001074:	d046      	beq.n	8001104 <HAL_DMA_Abort_IT+0x140>
 8001076:	681a      	ldr	r2, [r3, #0]
 8001078:	f422 7280 	bic.w	r2, r2, #256	; 0x100
 800107c:	601a      	str	r2, [r3, #0]
 800107e:	e9d0 321c 	ldrd	r3, r2, [r0, #112]	; 0x70
 8001082:	605a      	str	r2, [r3, #4]
 8001084:	e03e      	b.n	8001104 <HAL_DMA_Abort_IT+0x140>
 8001086:	2104      	movs	r1, #4
 8001088:	4293      	cmp	r3, r2
 800108a:	f880 1035 	strb.w	r1, [r0, #53]	; 0x35
 800108e:	d01e      	beq.n	80010ce <HAL_DMA_Abort_IT+0x10a>
 8001090:	4a23      	ldr	r2, [pc, #140]	; (8001120 <HAL_DMA_Abort_IT+0x15c>)
 8001092:	4293      	cmp	r3, r2
 8001094:	d01b      	beq.n	80010ce <HAL_DMA_Abort_IT+0x10a>
 8001096:	3218      	adds	r2, #24
 8001098:	4293      	cmp	r3, r2
 800109a:	d018      	beq.n	80010ce <HAL_DMA_Abort_IT+0x10a>
 800109c:	3218      	adds	r2, #24
 800109e:	4293      	cmp	r3, r2
 80010a0:	d015      	beq.n	80010ce <HAL_DMA_Abort_IT+0x10a>
 80010a2:	3218      	adds	r2, #24
 80010a4:	4293      	cmp	r3, r2
 80010a6:	d012      	beq.n	80010ce <HAL_DMA_Abort_IT+0x10a>
 80010a8:	3218      	adds	r2, #24
 80010aa:	4293      	cmp	r3, r2
 80010ac:	d00f      	beq.n	80010ce <HAL_DMA_Abort_IT+0x10a>
 80010ae:	3218      	adds	r2, #24
 80010b0:	4293      	cmp	r3, r2
 80010b2:	d00c      	beq.n	80010ce <HAL_DMA_Abort_IT+0x10a>
 80010b4:	3218      	adds	r2, #24
 80010b6:	4293      	cmp	r3, r2
 80010b8:	d009      	beq.n	80010ce <HAL_DMA_Abort_IT+0x10a>
 80010ba:	f502 7256 	add.w	r2, r2, #856	; 0x358
 80010be:	4293      	cmp	r3, r2
 80010c0:	d005      	beq.n	80010ce <HAL_DMA_Abort_IT+0x10a>
 80010c2:	3218      	adds	r2, #24
 80010c4:	4293      	cmp	r3, r2
 80010c6:	d002      	beq.n	80010ce <HAL_DMA_Abort_IT+0x10a>
 80010c8:	3218      	adds	r2, #24
 80010ca:	4293      	cmp	r3, r2
 80010cc:	d0ff      	beq.n	80010ce <HAL_DMA_Abort_IT+0x10a>
 80010ce:	681a      	ldr	r2, [r3, #0]
 80010d0:	f022 0201 	bic.w	r2, r2, #1
 80010d4:	601a      	str	r2, [r3, #0]
 80010d6:	2000      	movs	r0, #0
 80010d8:	bd10      	pop	{r4, pc}
 80010da:	4a13      	ldr	r2, [pc, #76]	; (8001128 <HAL_DMA_Abort_IT+0x164>)
 80010dc:	4293      	cmp	r3, r2
 80010de:	d0b8      	beq.n	8001052 <HAL_DMA_Abort_IT+0x8e>
 80010e0:	3214      	adds	r2, #20
 80010e2:	4293      	cmp	r3, r2
 80010e4:	d0b5      	beq.n	8001052 <HAL_DMA_Abort_IT+0x8e>
 80010e6:	3214      	adds	r2, #20
 80010e8:	4293      	cmp	r3, r2
 80010ea:	d0b2      	beq.n	8001052 <HAL_DMA_Abort_IT+0x8e>
 80010ec:	3214      	adds	r2, #20
 80010ee:	4293      	cmp	r3, r2
 80010f0:	d0af      	beq.n	8001052 <HAL_DMA_Abort_IT+0x8e>
 80010f2:	3214      	adds	r2, #20
 80010f4:	4293      	cmp	r3, r2
 80010f6:	d0ac      	beq.n	8001052 <HAL_DMA_Abort_IT+0x8e>
 80010f8:	3214      	adds	r2, #20
 80010fa:	4293      	cmp	r3, r2
 80010fc:	d0a9      	beq.n	8001052 <HAL_DMA_Abort_IT+0x8e>
 80010fe:	3214      	adds	r2, #20
 8001100:	4293      	cmp	r3, r2
 8001102:	d0a6      	beq.n	8001052 <HAL_DMA_Abort_IT+0x8e>
 8001104:	2301      	movs	r3, #1
 8001106:	2400      	movs	r4, #0
 8001108:	f880 3035 	strb.w	r3, [r0, #53]	; 0x35
 800110c:	6d03      	ldr	r3, [r0, #80]	; 0x50
 800110e:	f880 4034 	strb.w	r4, [r0, #52]	; 0x34
 8001112:	b10b      	cbz	r3, 8001118 <HAL_DMA_Abort_IT+0x154>
 8001114:	4798      	blx	r3
 8001116:	e7de      	b.n	80010d6 <HAL_DMA_Abort_IT+0x112>
 8001118:	4618      	mov	r0, r3
 800111a:	e7dd      	b.n	80010d8 <HAL_DMA_Abort_IT+0x114>
 800111c:	40020010 	.word	0x40020010
 8001120:	40020028 	.word	0x40020028
 8001124:	58025408 	.word	0x58025408
 8001128:	5802541c 	.word	0x5802541c

0800112c <ETH_SetMACConfig>:
 800112c:	688b      	ldr	r3, [r1, #8]
 800112e:	680a      	ldr	r2, [r1, #0]
 8001130:	f891 c00c 	ldrb.w	ip, [r1, #12]
 8001134:	431a      	orrs	r2, r3
 8001136:	7c0b      	ldrb	r3, [r1, #16]
 8001138:	2b00      	cmp	r3, #0
 800113a:	e92d 4ff0 	stmdb	sp!, {r4, r5, r6, r7, r8, r9, sl, fp, lr}
 800113e:	bf08      	it	eq
 8001140:	f44f 2300 	moveq.w	r3, #524288	; 0x80000
 8001144:	b085      	sub	sp, #20
 8001146:	bf18      	it	ne
 8001148:	2300      	movne	r3, #0
 800114a:	f891 e004 	ldrb.w	lr, [r1, #4]
 800114e:	7b4f      	ldrb	r7, [r1, #13]
 8001150:	9300      	str	r3, [sp, #0]
 8001152:	7c4b      	ldrb	r3, [r1, #17]
 8001154:	7b8e      	ldrb	r6, [r1, #14]
 8001156:	2b00      	cmp	r3, #0
 8001158:	7bcd      	ldrb	r5, [r1, #15]
 800115a:	7c8c      	ldrb	r4, [r1, #18]
 800115c:	bf0c      	ite	eq
 800115e:	f44f 3300 	moveq.w	r3, #131072	; 0x20000
 8001162:	2300      	movne	r3, #0
 8001164:	f891 901c 	ldrb.w	r9, [r1, #28]
 8001168:	9301      	str	r3, [sp, #4]
 800116a:	694b      	ldr	r3, [r1, #20]
 800116c:	f891 b01d 	ldrb.w	fp, [r1, #29]
 8001170:	431a      	orrs	r2, r3
 8001172:	698b      	ldr	r3, [r1, #24]
 8001174:	4313      	orrs	r3, r2
 8001176:	7f8a      	ldrb	r2, [r1, #30]
 8001178:	2a00      	cmp	r2, #0
 800117a:	bf0c      	ite	eq
 800117c:	f44f 6280 	moveq.w	r2, #1024	; 0x400
 8001180:	2200      	movne	r2, #0
 8001182:	9202      	str	r2, [sp, #8]
 8001184:	7fca      	ldrb	r2, [r1, #31]
 8001186:	9203      	str	r2, [sp, #12]
 8001188:	f891 2020 	ldrb.w	r2, [r1, #32]
 800118c:	2a00      	cmp	r2, #0
 800118e:	6802      	ldr	r2, [r0, #0]
 8001190:	6a48      	ldr	r0, [r1, #36]	; 0x24
 8001192:	f8d2 a000 	ldr.w	sl, [r2]
 8001196:	bf08      	it	eq
 8001198:	f44f 7880 	moveq.w	r8, #256	; 0x100
 800119c:	ea43 0300 	orr.w	r3, r3, r0
 80011a0:	6ac8      	ldr	r0, [r1, #44]	; 0x2c
 80011a2:	f02a 4a7f 	bic.w	sl, sl, #4278190080	; 0xff000000
 80011a6:	bf18      	it	ne
 80011a8:	f04f 0800 	movne.w	r8, #0
 80011ac:	4303      	orrs	r3, r0
 80011ae:	9803      	ldr	r0, [sp, #12]
 80011b0:	f42a 0a7b 	bic.w	sl, sl, #16449536	; 0xfb0000
 80011b4:	f42a 4afe 	bic.w	sl, sl, #32512	; 0x7f00
 80011b8:	f02a 0a7c 	bic.w	sl, sl, #124	; 0x7c
 80011bc:	ea43 030a 	orr.w	r3, r3, sl
 80011c0:	ea43 63ce 	orr.w	r3, r3, lr, lsl #27
 80011c4:	ea43 53cc 	orr.w	r3, r3, ip, lsl #23
 80011c8:	ea43 5387 	orr.w	r3, r3, r7, lsl #22
 80011cc:	ea43 5346 	orr.w	r3, r3, r6, lsl #21
 80011d0:	ea43 5305 	orr.w	r3, r3, r5, lsl #20
 80011d4:	ea43 4304 	orr.w	r3, r3, r4, lsl #16
 80011d8:	ea43 3309 	orr.w	r3, r3, r9, lsl #12
 80011dc:	ea43 23cb 	orr.w	r3, r3, fp, lsl #11
 80011e0:	f891 b028 	ldrb.w	fp, [r1, #40]	; 0x28
 80011e4:	ea43 2340 	orr.w	r3, r3, r0, lsl #9
 80011e8:	9800      	ldr	r0, [sp, #0]
 80011ea:	ea43 130b 	orr.w	r3, r3, fp, lsl #4
 80011ee:	4303      	orrs	r3, r0
 80011f0:	9801      	ldr	r0, [sp, #4]
 80011f2:	4303      	orrs	r3, r0
 80011f4:	9802      	ldr	r0, [sp, #8]
 80011f6:	4303      	orrs	r3, r0
 80011f8:	ea43 0308 	orr.w	r3, r3, r8
 80011fc:	6013      	str	r3, [r2, #0]
 80011fe:	6bce      	ldr	r6, [r1, #60]	; 0x3c
 8001200:	f891 3032 	ldrb.w	r3, [r1, #50]	; 0x32
 8001204:	f891 7038 	ldrb.w	r7, [r1, #56]	; 0x38
 8001208:	2b00      	cmp	r3, #0
 800120a:	6853      	ldr	r3, [r2, #4]
 800120c:	f891 5030 	ldrb.w	r5, [r1, #48]	; 0x30
 8001210:	f023 537c 	bic.w	r3, r3, #1056964608	; 0x3f000000
 8001214:	f891 4031 	ldrb.w	r4, [r1, #49]	; 0x31
 8001218:	bf0c      	ite	eq
 800121a:	f44f 3080 	moveq.w	r0, #65536	; 0x10000
 800121e:	2000      	movne	r0, #0
 8001220:	f423 23ef 	bic.w	r3, r3, #489472	; 0x77800
 8001224:	f423 63ff 	bic.w	r3, r3, #2040	; 0x7f8
 8001228:	f023 0307 	bic.w	r3, r3, #7
 800122c:	ea43 6346 	orr.w	r3, r3, r6, lsl #25
 8001230:	6b4e      	ldr	r6, [r1, #52]	; 0x34
 8001232:	4333      	orrs	r3, r6
 8001234:	6c8e      	ldr	r6, [r1, #72]	; 0x48
 8001236:	ea43 6307 	orr.w	r3, r3, r7, lsl #24
 800123a:	ea43 4385 	orr.w	r3, r3, r5, lsl #18
 800123e:	6d0d      	ldr	r5, [r1, #80]	; 0x50
 8001240:	ea43 4344 	orr.w	r3, r3, r4, lsl #17
 8001244:	f891 4054 	ldrb.w	r4, [r1, #84]	; 0x54
 8001248:	4303      	orrs	r3, r0
 800124a:	6c48      	ldr	r0, [r1, #68]	; 0x44
 800124c:	6053      	str	r3, [r2, #4]
 800124e:	68d3      	ldr	r3, [r2, #12]
 8001250:	f423 7387 	bic.w	r3, r3, #270	; 0x10e
 8001254:	f023 0301 	bic.w	r3, r3, #1
 8001258:	4303      	orrs	r3, r0
 800125a:	f891 0040 	ldrb.w	r0, [r1, #64]	; 0x40
 800125e:	ea43 2300 	orr.w	r3, r3, r0, lsl #8
 8001262:	60d3      	str	r3, [r2, #12]
 8001264:	f891 304c 	ldrb.w	r3, [r1, #76]	; 0x4c
 8001268:	2b00      	cmp	r3, #0
 800126a:	6f13      	ldr	r3, [r2, #112]	; 0x70
 800126c:	f023 03f2 	bic.w	r3, r3, #242	; 0xf2
 8001270:	bf0c      	ite	eq
 8001272:	2080      	moveq	r0, #128	; 0x80
 8001274:	2000      	movne	r0, #0
 8001276:	041b      	lsls	r3, r3, #16
 8001278:	0c1b      	lsrs	r3, r3, #16
 800127a:	ea43 4306 	orr.w	r3, r3, r6, lsl #16
 800127e:	432b      	orrs	r3, r5
 8001280:	6dcd      	ldr	r5, [r1, #92]	; 0x5c
 8001282:	ea43 0344 	orr.w	r3, r3, r4, lsl #1
 8001286:	f891 4061 	ldrb.w	r4, [r1, #97]	; 0x61
 800128a:	4303      	orrs	r3, r0
 800128c:	6713      	str	r3, [r2, #112]	; 0x70
 800128e:	f8d2 0090 	ldr.w	r0, [r2, #144]	; 0x90
 8001292:	f891 3056 	ldrb.w	r3, [r1, #86]	; 0x56
 8001296:	f020 0003 	bic.w	r0, r0, #3
 800129a:	4303      	orrs	r3, r0
 800129c:	f891 0055 	ldrb.w	r0, [r1, #85]	; 0x55
 80012a0:	ea43 0340 	orr.w	r3, r3, r0, lsl #1
 80012a4:	6d88      	ldr	r0, [r1, #88]	; 0x58
 80012a6:	f8c2 3090 	str.w	r3, [r2, #144]	; 0x90
 80012aa:	f8d2 3d00 	ldr.w	r3, [r2, #3328]	; 0xd00
 80012ae:	f023 0372 	bic.w	r3, r3, #114	; 0x72
 80012b2:	4303      	orrs	r3, r0
 80012b4:	f8c2 3d00 	str.w	r3, [r2, #3328]	; 0xd00
 80012b8:	f891 3060 	ldrb.w	r3, [r1, #96]	; 0x60
 80012bc:	f891 1062 	ldrb.w	r1, [r1, #98]	; 0x62
 80012c0:	2b00      	cmp	r3, #0
 80012c2:	f8d2 3d30 	ldr.w	r3, [r2, #3376]	; 0xd30
 80012c6:	f023 037b 	bic.w	r3, r3, #123	; 0x7b
 80012ca:	bf0c      	ite	eq
 80012cc:	2040      	moveq	r0, #64	; 0x40
 80012ce:	2000      	movne	r0, #0
 80012d0:	432b      	orrs	r3, r5
 80012d2:	ea43 1304 	orr.w	r3, r3, r4, lsl #4
 80012d6:	ea43 03c1 	orr.w	r3, r3, r1, lsl #3
 80012da:	4303      	orrs	r3, r0
 80012dc:	f8c2 3d30 	str.w	r3, [r2, #3376]	; 0xd30
 80012e0:	b005      	add	sp, #20
 80012e2:	e8bd 8ff0 	ldmia.w	sp!, {r4, r5, r6, r7, r8, r9, sl, fp, pc}
	...

080012e8 <ETH_SetDMAConfig>:
 80012e8:	6802      	ldr	r2, [r0, #0]
 80012ea:	f502 5080 	add.w	r0, r2, #4096	; 0x1000
 80012ee:	6803      	ldr	r3, [r0, #0]
 80012f0:	f423 43f0 	bic.w	r3, r3, #30720	; 0x7800
 80012f4:	b530      	push	{r4, r5, lr}
 80012f6:	f023 0302 	bic.w	r3, r3, #2
 80012fa:	680c      	ldr	r4, [r1, #0]
 80012fc:	790d      	ldrb	r5, [r1, #4]
 80012fe:	4323      	orrs	r3, r4
 8001300:	f241 0404 	movw	r4, #4100	; 0x1004
 8001304:	6003      	str	r3, [r0, #0]
 8001306:	7b0b      	ldrb	r3, [r1, #12]
 8001308:	5910      	ldr	r0, [r2, r4]
 800130a:	03db      	lsls	r3, r3, #15
 800130c:	f420 4050 	bic.w	r0, r0, #53248	; 0xd000
 8001310:	ea43 3305 	orr.w	r3, r3, r5, lsl #12
 8001314:	688d      	ldr	r5, [r1, #8]
 8001316:	f020 0001 	bic.w	r0, r0, #1
 800131a:	432b      	orrs	r3, r5
 800131c:	4303      	orrs	r3, r0
 800131e:	7b48      	ldrb	r0, [r1, #13]
 8001320:	5113      	str	r3, [r2, r4]
 8001322:	f502 5488 	add.w	r4, r2, #4352	; 0x1100
 8001326:	6a0b      	ldr	r3, [r1, #32]
 8001328:	6825      	ldr	r5, [r4, #0]
 800132a:	ea43 4300 	orr.w	r3, r3, r0, lsl #16
 800132e:	4810      	ldr	r0, [pc, #64]	; (8001370 <ETH_SetDMAConfig+0x88>)
 8001330:	4028      	ands	r0, r5
 8001332:	4303      	orrs	r3, r0
 8001334:	7d08      	ldrb	r0, [r1, #20]
 8001336:	6023      	str	r3, [r4, #0]
 8001338:	f241 1404 	movw	r4, #4356	; 0x1104
 800133c:	7f4b      	ldrb	r3, [r1, #29]
 800133e:	5915      	ldr	r5, [r2, r4]
 8001340:	031b      	lsls	r3, r3, #12
 8001342:	ea43 1300 	orr.w	r3, r3, r0, lsl #4
 8001346:	6908      	ldr	r0, [r1, #16]
 8001348:	4303      	orrs	r3, r0
 800134a:	480a      	ldr	r0, [pc, #40]	; (8001374 <ETH_SetDMAConfig+0x8c>)
 800134c:	4028      	ands	r0, r5
 800134e:	7f0d      	ldrb	r5, [r1, #28]
 8001350:	4303      	orrs	r3, r0
 8001352:	5113      	str	r3, [r2, r4]
 8001354:	f241 1408 	movw	r4, #4360	; 0x1108
 8001358:	698b      	ldr	r3, [r1, #24]
 800135a:	5910      	ldr	r0, [r2, r4]
 800135c:	ea43 73c5 	orr.w	r3, r3, r5, lsl #31
 8001360:	f020 4100 	bic.w	r1, r0, #2147483648	; 0x80000000
 8001364:	f421 117c 	bic.w	r1, r1, #4128768	; 0x3f0000
 8001368:	430b      	orrs	r3, r1
 800136a:	5113      	str	r3, [r2, r4]
 800136c:	bd30      	pop	{r4, r5, pc}
 800136e:	bf00      	nop
 8001370:	fffec000 	.word	0xfffec000
 8001374:	ffc0efef 	.word	0xffc0efef

08001378 <HAL_ETH_SetMDIOClockRange>:
 8001378:	b538      	push	{r3, r4, r5, lr}
 800137a:	6803      	ldr	r3, [r0, #0]
 800137c:	4605      	mov	r5, r0
 800137e:	f8d3 4200 	ldr.w	r4, [r3, #512]	; 0x200
 8001382:	f000 ff63 	bl	800224c <HAL_RCC_GetHCLKFreq>
 8001386:	4b12      	ldr	r3, [pc, #72]	; (80013d0 <HAL_ETH_SetMDIOClockRange+0x58>)
 8001388:	4a12      	ldr	r2, [pc, #72]	; (80013d4 <HAL_ETH_SetMDIOClockRange+0x5c>)
 800138a:	f424 6470 	bic.w	r4, r4, #3840	; 0xf00
 800138e:	4403      	add	r3, r0
 8001390:	4293      	cmp	r3, r2
 8001392:	d805      	bhi.n	80013a0 <HAL_ETH_SetMDIOClockRange+0x28>
 8001394:	f444 7400 	orr.w	r4, r4, #512	; 0x200
 8001398:	682b      	ldr	r3, [r5, #0]
 800139a:	f8c3 4200 	str.w	r4, [r3, #512]	; 0x200
 800139e:	bd38      	pop	{r3, r4, r5, pc}
 80013a0:	4b0d      	ldr	r3, [pc, #52]	; (80013d8 <HAL_ETH_SetMDIOClockRange+0x60>)
 80013a2:	4a0e      	ldr	r2, [pc, #56]	; (80013dc <HAL_ETH_SetMDIOClockRange+0x64>)
 80013a4:	4403      	add	r3, r0
 80013a6:	4293      	cmp	r3, r2
 80013a8:	d802      	bhi.n	80013b0 <HAL_ETH_SetMDIOClockRange+0x38>
 80013aa:	f444 7440 	orr.w	r4, r4, #768	; 0x300
 80013ae:	e7f3      	b.n	8001398 <HAL_ETH_SetMDIOClockRange+0x20>
 80013b0:	4b0b      	ldr	r3, [pc, #44]	; (80013e0 <HAL_ETH_SetMDIOClockRange+0x68>)
 80013b2:	4a0c      	ldr	r2, [pc, #48]	; (80013e4 <HAL_ETH_SetMDIOClockRange+0x6c>)
 80013b4:	4403      	add	r3, r0
 80013b6:	4293      	cmp	r3, r2
 80013b8:	d9ee      	bls.n	8001398 <HAL_ETH_SetMDIOClockRange+0x20>
 80013ba:	4b0b      	ldr	r3, [pc, #44]	; (80013e8 <HAL_ETH_SetMDIOClockRange+0x70>)
 80013bc:	4a0b      	ldr	r2, [pc, #44]	; (80013ec <HAL_ETH_SetMDIOClockRange+0x74>)
 80013be:	4403      	add	r3, r0
 80013c0:	4293      	cmp	r3, r2
 80013c2:	bf94      	ite	ls
 80013c4:	f444 7480 	orrls.w	r4, r4, #256	; 0x100
 80013c8:	f444 6480 	orrhi.w	r4, r4, #1024	; 0x400
 80013cc:	e7e4      	b.n	8001398 <HAL_ETH_SetMDIOClockRange+0x20>
 80013ce:	bf00      	nop
 80013d0:	feced300 	.word	0xfeced300
 80013d4:	00e4e1bf 	.word	0x00e4e1bf
 80013d8:	fde9f140 	.word	0xfde9f140
 80013dc:	017d783f 	.word	0x017d783f
 80013e0:	fc6c7900 	.word	0xfc6c7900
 80013e4:	026259ff 	.word	0x026259ff
 80013e8:	fa0a1f00 	.word	0xfa0a1f00
 80013ec:	02faf07f 	.word	0x02faf07f

080013f0 <HAL_ETH_Init>:
 80013f0:	b570      	push	{r4, r5, r6, lr}
 80013f2:	4605      	mov	r5, r0
 80013f4:	b0a4      	sub	sp, #144	; 0x90
 80013f6:	2800      	cmp	r0, #0
 80013f8:	f000 80bd 	beq.w	8001576 <HAL_ETH_Init+0x186>
 80013fc:	6d43      	ldr	r3, [r0, #84]	; 0x54
 80013fe:	b90b      	cbnz	r3, 8001404 <HAL_ETH_Init+0x14>
 8001400:	f7ff faec 	bl	80009dc <HAL_ETH_MspInit>
 8001404:	2323      	movs	r3, #35	; 0x23
 8001406:	7a28      	ldrb	r0, [r5, #8]
 8001408:	656b      	str	r3, [r5, #84]	; 0x54
 800140a:	4b86      	ldr	r3, [pc, #536]	; (8001624 <HAL_ETH_Init+0x234>)
 800140c:	f8d3 20f4 	ldr.w	r2, [r3, #244]	; 0xf4
 8001410:	f042 0202 	orr.w	r2, r2, #2
 8001414:	f8c3 20f4 	str.w	r2, [r3, #244]	; 0xf4
 8001418:	f8d3 30f4 	ldr.w	r3, [r3, #244]	; 0xf4
 800141c:	f003 0302 	and.w	r3, r3, #2
 8001420:	9301      	str	r3, [sp, #4]
 8001422:	9b01      	ldr	r3, [sp, #4]
 8001424:	2800      	cmp	r0, #0
 8001426:	f040 8098 	bne.w	800155a <HAL_ETH_Init+0x16a>
 800142a:	f7ff fd59 	bl	8000ee0 <HAL_SYSCFG_ETHInterfaceSelect>
 800142e:	682b      	ldr	r3, [r5, #0]
 8001430:	f503 5380 	add.w	r3, r3, #4096	; 0x1000
 8001434:	681a      	ldr	r2, [r3, #0]
 8001436:	f042 0201 	orr.w	r2, r2, #1
 800143a:	601a      	str	r2, [r3, #0]
 800143c:	f7ff fd32 	bl	8000ea4 <HAL_GetTick>
 8001440:	4606      	mov	r6, r0
 8001442:	682b      	ldr	r3, [r5, #0]
 8001444:	f503 5380 	add.w	r3, r3, #4096	; 0x1000
 8001448:	681c      	ldr	r4, [r3, #0]
 800144a:	f014 0401 	ands.w	r4, r4, #1
 800144e:	f040 8087 	bne.w	8001560 <HAL_ETH_Init+0x170>
 8001452:	4628      	mov	r0, r5
 8001454:	2601      	movs	r6, #1
 8001456:	f7ff ff8f 	bl	8001378 <HAL_ETH_SetMDIOClockRange>
 800145a:	f000 fef7 	bl	800224c <HAL_RCC_GetHCLKFreq>
 800145e:	4b72      	ldr	r3, [pc, #456]	; (8001628 <HAL_ETH_Init+0x238>)
 8001460:	682a      	ldr	r2, [r5, #0]
 8001462:	a90b      	add	r1, sp, #44	; 0x2c
 8001464:	f88d 603b 	strb.w	r6, [sp, #59]	; 0x3b
 8001468:	9414      	str	r4, [sp, #80]	; 0x50
 800146a:	f88d 4049 	strb.w	r4, [sp, #73]	; 0x49
 800146e:	f88d 404b 	strb.w	r4, [sp, #75]	; 0x4b
 8001472:	f88d 6030 	strb.w	r6, [sp, #48]	; 0x30
 8001476:	f88d 605e 	strb.w	r6, [sp, #94]	; 0x5e
 800147a:	f88d 603a 	strb.w	r6, [sp, #58]	; 0x3a
 800147e:	f88d 4054 	strb.w	r4, [sp, #84]	; 0x54
 8001482:	f88d 608c 	strb.w	r6, [sp, #140]	; 0x8c
 8001486:	f88d 4064 	strb.w	r4, [sp, #100]	; 0x64
 800148a:	941a      	str	r4, [sp, #104]	; 0x68
 800148c:	f88d 408d 	strb.w	r4, [sp, #141]	; 0x8d
 8001490:	f88d 408e 	strb.w	r4, [sp, #142]	; 0x8e
 8001494:	f88d 4038 	strb.w	r4, [sp, #56]	; 0x38
 8001498:	940d      	str	r4, [sp, #52]	; 0x34
 800149a:	f88d 603d 	strb.w	r6, [sp, #61]	; 0x3d
 800149e:	f88d 403e 	strb.w	r4, [sp, #62]	; 0x3e
 80014a2:	f88d 4048 	strb.w	r4, [sp, #72]	; 0x48
 80014a6:	941f      	str	r4, [sp, #124]	; 0x7c
 80014a8:	941d      	str	r4, [sp, #116]	; 0x74
 80014aa:	9416      	str	r4, [sp, #88]	; 0x58
 80014ac:	f88d 406c 	strb.w	r4, [sp, #108]	; 0x6c
 80014b0:	f88d 4082 	strb.w	r4, [sp, #130]	; 0x82
 80014b4:	f88d 604a 	strb.w	r6, [sp, #74]	; 0x4a
 80014b8:	f88d 604c 	strb.w	r6, [sp, #76]	; 0x4c
 80014bc:	f88d 405d 	strb.w	r4, [sp, #93]	; 0x5d
 80014c0:	fbb0 f0f3 	udiv	r0, r0, r3
 80014c4:	f44f 5300 	mov.w	r3, #8192	; 0x2000
 80014c8:	3801      	subs	r0, #1
 80014ca:	9311      	str	r3, [sp, #68]	; 0x44
 80014cc:	f44f 63c3 	mov.w	r3, #1560	; 0x618
 80014d0:	f8c2 00dc 	str.w	r0, [r2, #220]	; 0xdc
 80014d4:	4628      	mov	r0, r5
 80014d6:	9318      	str	r3, [sp, #96]	; 0x60
 80014d8:	2320      	movs	r3, #32
 80014da:	9322      	str	r3, [sp, #136]	; 0x88
 80014dc:	f04f 5340 	mov.w	r3, #805306368	; 0x30000000
 80014e0:	930b      	str	r3, [sp, #44]	; 0x2c
 80014e2:	f44f 4380 	mov.w	r3, #16384	; 0x4000
 80014e6:	9310      	str	r3, [sp, #64]	; 0x40
 80014e8:	2302      	movs	r3, #2
 80014ea:	f88d 4039 	strb.w	r4, [sp, #57]	; 0x39
 80014ee:	9321      	str	r3, [sp, #132]	; 0x84
 80014f0:	f88d 4080 	strb.w	r4, [sp, #128]	; 0x80
 80014f4:	f88d 4081 	strb.w	r4, [sp, #129]	; 0x81
 80014f8:	f88d 405c 	strb.w	r4, [sp, #92]	; 0x5c
 80014fc:	f88d 603c 	strb.w	r6, [sp, #60]	; 0x3c
 8001500:	941c      	str	r4, [sp, #112]	; 0x70
 8001502:	f88d 6078 	strb.w	r6, [sp, #120]	; 0x78
 8001506:	f7ff fe11 	bl	800112c <ETH_SetMACConfig>
 800150a:	f44f 1300 	mov.w	r3, #2097152	; 0x200000
 800150e:	a902      	add	r1, sp, #8
 8001510:	4628      	mov	r0, r5
 8001512:	f88d 600c 	strb.w	r6, [sp, #12]
 8001516:	9308      	str	r3, [sp, #32]
 8001518:	9306      	str	r3, [sp, #24]
 800151a:	f44f 7306 	mov.w	r3, #536	; 0x218
 800151e:	9604      	str	r6, [sp, #16]
 8001520:	930a      	str	r3, [sp, #40]	; 0x28
 8001522:	9402      	str	r4, [sp, #8]
 8001524:	f88d 4024 	strb.w	r4, [sp, #36]	; 0x24
 8001528:	f88d 4015 	strb.w	r4, [sp, #21]
 800152c:	f88d 4014 	strb.w	r4, [sp, #20]
 8001530:	f88d 401c 	strb.w	r4, [sp, #28]
 8001534:	f88d 4025 	strb.w	r4, [sp, #37]	; 0x25
 8001538:	f7ff fed6 	bl	80012e8 <ETH_SetDMAConfig>
 800153c:	682b      	ldr	r3, [r5, #0]
 800153e:	6968      	ldr	r0, [r5, #20]
 8001540:	f503 5188 	add.w	r1, r3, #4352	; 0x1100
 8001544:	680a      	ldr	r2, [r1, #0]
 8001546:	f422 12e0 	bic.w	r2, r2, #1835008	; 0x1c0000
 800154a:	f442 2200 	orr.w	r2, r2, #524288	; 0x80000
 800154e:	600a      	str	r2, [r1, #0]
 8001550:	f010 0103 	ands.w	r1, r0, #3
 8001554:	d011      	beq.n	800157a <HAL_ETH_Init+0x18a>
 8001556:	65ee      	str	r6, [r5, #92]	; 0x5c
 8001558:	e00b      	b.n	8001572 <HAL_ETH_Init+0x182>
 800155a:	f44f 0000 	mov.w	r0, #8388608	; 0x800000
 800155e:	e764      	b.n	800142a <HAL_ETH_Init+0x3a>
 8001560:	f7ff fca0 	bl	8000ea4 <HAL_GetTick>
 8001564:	1b80      	subs	r0, r0, r6
 8001566:	f5b0 7ffa 	cmp.w	r0, #500	; 0x1f4
 800156a:	f67f af6a 	bls.w	8001442 <HAL_ETH_Init+0x52>
 800156e:	2304      	movs	r3, #4
 8001570:	65eb      	str	r3, [r5, #92]	; 0x5c
 8001572:	23e0      	movs	r3, #224	; 0xe0
 8001574:	656b      	str	r3, [r5, #84]	; 0x54
 8001576:	2001      	movs	r0, #1
 8001578:	e051      	b.n	800161e <HAL_ETH_Init+0x22e>
 800157a:	f241 1408 	movw	r4, #4360	; 0x1108
 800157e:	591a      	ldr	r2, [r3, r4]
 8001580:	f422 42ff 	bic.w	r2, r2, #32640	; 0x7f80
 8001584:	f022 027e 	bic.w	r2, r2, #126	; 0x7e
 8001588:	ea42 0240 	orr.w	r2, r2, r0, lsl #1
 800158c:	68e8      	ldr	r0, [r5, #12]
 800158e:	511a      	str	r2, [r3, r4]
 8001590:	f100 0660 	add.w	r6, r0, #96	; 0x60
 8001594:	f105 0418 	add.w	r4, r5, #24
 8001598:	4602      	mov	r2, r0
 800159a:	6011      	str	r1, [r2, #0]
 800159c:	6051      	str	r1, [r2, #4]
 800159e:	6091      	str	r1, [r2, #8]
 80015a0:	60d1      	str	r1, [r2, #12]
 80015a2:	f844 2b04 	str.w	r2, [r4], #4
 80015a6:	3218      	adds	r2, #24
 80015a8:	42b2      	cmp	r2, r6
 80015aa:	d1f6      	bne.n	800159a <HAL_ETH_Init+0x1aa>
 80015ac:	62a9      	str	r1, [r5, #40]	; 0x28
 80015ae:	f241 122c 	movw	r2, #4396	; 0x112c
 80015b2:	2103      	movs	r1, #3
 80015b4:	2400      	movs	r4, #0
 80015b6:	5099      	str	r1, [r3, r2]
 80015b8:	f241 1214 	movw	r2, #4372	; 0x1114
 80015bc:	6929      	ldr	r1, [r5, #16]
 80015be:	5098      	str	r0, [r3, r2]
 80015c0:	f503 5289 	add.w	r2, r3, #4384	; 0x1120
 80015c4:	f101 0660 	add.w	r6, r1, #96	; 0x60
 80015c8:	6010      	str	r0, [r2, #0]
 80015ca:	f105 002c 	add.w	r0, r5, #44	; 0x2c
 80015ce:	460a      	mov	r2, r1
 80015d0:	6014      	str	r4, [r2, #0]
 80015d2:	6054      	str	r4, [r2, #4]
 80015d4:	6094      	str	r4, [r2, #8]
 80015d6:	60d4      	str	r4, [r2, #12]
 80015d8:	e9c2 4404 	strd	r4, r4, [r2, #16]
 80015dc:	f840 2b04 	str.w	r2, [r0], #4
 80015e0:	3218      	adds	r2, #24
 80015e2:	42b2      	cmp	r2, r6
 80015e4:	d1f4      	bne.n	80015d0 <HAL_ETH_Init+0x1e0>
 80015e6:	f241 1230 	movw	r2, #4400	; 0x1130
 80015ea:	2003      	movs	r0, #3
 80015ec:	646c      	str	r4, [r5, #68]	; 0x44
 80015ee:	e9c5 440f 	strd	r4, r4, [r5, #60]	; 0x3c
 80015f2:	e9c5 4412 	strd	r4, r4, [r5, #72]	; 0x48
 80015f6:	5098      	str	r0, [r3, r2]
 80015f8:	f241 121c 	movw	r2, #4380	; 0x111c
 80015fc:	2000      	movs	r0, #0
 80015fe:	5099      	str	r1, [r3, r2]
 8001600:	3148      	adds	r1, #72	; 0x48
 8001602:	f241 1228 	movw	r2, #4392	; 0x1128
 8001606:	5099      	str	r1, [r3, r2]
 8001608:	686a      	ldr	r2, [r5, #4]
 800160a:	8891      	ldrh	r1, [r2, #4]
 800160c:	f8c3 1300 	str.w	r1, [r3, #768]	; 0x300
 8001610:	6812      	ldr	r2, [r2, #0]
 8001612:	f8c3 2304 	str.w	r2, [r3, #772]	; 0x304
 8001616:	2310      	movs	r3, #16
 8001618:	65ec      	str	r4, [r5, #92]	; 0x5c
 800161a:	656b      	str	r3, [r5, #84]	; 0x54
 800161c:	65ab      	str	r3, [r5, #88]	; 0x58
 800161e:	b024      	add	sp, #144	; 0x90
 8001620:	bd70      	pop	{r4, r5, r6, pc}
 8001622:	bf00      	nop
 8001624:	58024400 	.word	0x58024400
 8001628:	000f4240 	.word	0x000f4240

0800162c <HAL_GPIO_Init>:
 800162c:	e92d 4ff0 	stmdb	sp!, {r4, r5, r6, r7, r8, r9, sl, fp, lr}
 8001630:	680b      	ldr	r3, [r1, #0]
 8001632:	b085      	sub	sp, #20
 8001634:	f8df 81c0 	ldr.w	r8, [pc, #448]	; 80017f8 <HAL_GPIO_Init+0x1cc>
 8001638:	f04f 49b0 	mov.w	r9, #1476395008	; 0x58000000
 800163c:	9301      	str	r3, [sp, #4]
 800163e:	2300      	movs	r3, #0
 8001640:	f8df c1b8 	ldr.w	ip, [pc, #440]	; 80017fc <HAL_GPIO_Init+0x1d0>
 8001644:	9a01      	ldr	r2, [sp, #4]
 8001646:	40da      	lsrs	r2, r3
 8001648:	d102      	bne.n	8001650 <HAL_GPIO_Init+0x24>
 800164a:	b005      	add	sp, #20
 800164c:	e8bd 8ff0 	ldmia.w	sp!, {r4, r5, r6, r7, r8, r9, sl, fp, pc}
 8001650:	2701      	movs	r7, #1
 8001652:	9a01      	ldr	r2, [sp, #4]
 8001654:	409f      	lsls	r7, r3
 8001656:	ea17 0502 	ands.w	r5, r7, r2
 800165a:	f000 80b6 	beq.w	80017ca <HAL_GPIO_Init+0x19e>
 800165e:	684a      	ldr	r2, [r1, #4]
 8001660:	ea4f 0e43 	mov.w	lr, r3, lsl #1
 8001664:	2403      	movs	r4, #3
 8001666:	f022 0a10 	bic.w	sl, r2, #16
 800166a:	fa04 f40e 	lsl.w	r4, r4, lr
 800166e:	f10a 36ff 	add.w	r6, sl, #4294967295
 8001672:	43e4      	mvns	r4, r4
 8001674:	2e01      	cmp	r6, #1
 8001676:	d810      	bhi.n	800169a <HAL_GPIO_Init+0x6e>
 8001678:	6886      	ldr	r6, [r0, #8]
 800167a:	ea06 0b04 	and.w	fp, r6, r4
 800167e:	68ce      	ldr	r6, [r1, #12]
 8001680:	fa06 f60e 	lsl.w	r6, r6, lr
 8001684:	ea46 060b 	orr.w	r6, r6, fp
 8001688:	6086      	str	r6, [r0, #8]
 800168a:	6846      	ldr	r6, [r0, #4]
 800168c:	ea26 0707 	bic.w	r7, r6, r7
 8001690:	f3c2 1600 	ubfx	r6, r2, #4, #1
 8001694:	409e      	lsls	r6, r3
 8001696:	4337      	orrs	r7, r6
 8001698:	6047      	str	r7, [r0, #4]
 800169a:	68c7      	ldr	r7, [r0, #12]
 800169c:	f1ba 0f02 	cmp.w	sl, #2
 80016a0:	688e      	ldr	r6, [r1, #8]
 80016a2:	ea07 0704 	and.w	r7, r7, r4
 80016a6:	fa06 f60e 	lsl.w	r6, r6, lr
 80016aa:	ea46 0607 	orr.w	r6, r6, r7
 80016ae:	60c6      	str	r6, [r0, #12]
 80016b0:	d114      	bne.n	80016dc <HAL_GPIO_Init+0xb0>
 80016b2:	ea4f 0ad3 	mov.w	sl, r3, lsr #3
 80016b6:	f003 0b07 	and.w	fp, r3, #7
 80016ba:	270f      	movs	r7, #15
 80016bc:	eb00 0a8a 	add.w	sl, r0, sl, lsl #2
 80016c0:	ea4f 0b8b 	mov.w	fp, fp, lsl #2
 80016c4:	f8da 6020 	ldr.w	r6, [sl, #32]
 80016c8:	fa07 f70b 	lsl.w	r7, r7, fp
 80016cc:	ea26 0707 	bic.w	r7, r6, r7
 80016d0:	690e      	ldr	r6, [r1, #16]
 80016d2:	fa06 f60b 	lsl.w	r6, r6, fp
 80016d6:	433e      	orrs	r6, r7
 80016d8:	f8ca 6020 	str.w	r6, [sl, #32]
 80016dc:	6806      	ldr	r6, [r0, #0]
 80016de:	4034      	ands	r4, r6
 80016e0:	f002 0603 	and.w	r6, r2, #3
 80016e4:	fa06 fe0e 	lsl.w	lr, r6, lr
 80016e8:	ea4e 0404 	orr.w	r4, lr, r4
 80016ec:	6004      	str	r4, [r0, #0]
 80016ee:	00d4      	lsls	r4, r2, #3
 80016f0:	d56b      	bpl.n	80017ca <HAL_GPIO_Init+0x19e>
 80016f2:	f8d8 40f4 	ldr.w	r4, [r8, #244]	; 0xf4
 80016f6:	f023 0603 	bic.w	r6, r3, #3
 80016fa:	f003 0703 	and.w	r7, r3, #3
 80016fe:	f04f 0e0f 	mov.w	lr, #15
 8001702:	f044 0402 	orr.w	r4, r4, #2
 8001706:	f106 46b0 	add.w	r6, r6, #1476395008	; 0x58000000
 800170a:	00bf      	lsls	r7, r7, #2
 800170c:	f8c8 40f4 	str.w	r4, [r8, #244]	; 0xf4
 8001710:	f506 6680 	add.w	r6, r6, #1024	; 0x400
 8001714:	f8d8 40f4 	ldr.w	r4, [r8, #244]	; 0xf4
 8001718:	f004 0402 	and.w	r4, r4, #2
 800171c:	9403      	str	r4, [sp, #12]
 800171e:	9c03      	ldr	r4, [sp, #12]
 8001720:	fa0e f407 	lsl.w	r4, lr, r7
 8001724:	f8d6 a008 	ldr.w	sl, [r6, #8]
 8001728:	ea2a 0e04 	bic.w	lr, sl, r4
 800172c:	4c31      	ldr	r4, [pc, #196]	; (80017f4 <HAL_GPIO_Init+0x1c8>)
 800172e:	42a0      	cmp	r0, r4
 8001730:	d04d      	beq.n	80017ce <HAL_GPIO_Init+0x1a2>
 8001732:	f504 6480 	add.w	r4, r4, #1024	; 0x400
 8001736:	42a0      	cmp	r0, r4
 8001738:	d04b      	beq.n	80017d2 <HAL_GPIO_Init+0x1a6>
 800173a:	f504 6480 	add.w	r4, r4, #1024	; 0x400
 800173e:	42a0      	cmp	r0, r4
 8001740:	d049      	beq.n	80017d6 <HAL_GPIO_Init+0x1aa>
 8001742:	f504 6480 	add.w	r4, r4, #1024	; 0x400
 8001746:	42a0      	cmp	r0, r4
 8001748:	d047      	beq.n	80017da <HAL_GPIO_Init+0x1ae>
 800174a:	f504 6480 	add.w	r4, r4, #1024	; 0x400
 800174e:	42a0      	cmp	r0, r4
 8001750:	d045      	beq.n	80017de <HAL_GPIO_Init+0x1b2>
 8001752:	f504 6480 	add.w	r4, r4, #1024	; 0x400
 8001756:	42a0      	cmp	r0, r4
 8001758:	d043      	beq.n	80017e2 <HAL_GPIO_Init+0x1b6>
 800175a:	f504 6480 	add.w	r4, r4, #1024	; 0x400
 800175e:	42a0      	cmp	r0, r4
 8001760:	d041      	beq.n	80017e6 <HAL_GPIO_Init+0x1ba>
 8001762:	f504 6480 	add.w	r4, r4, #1024	; 0x400
 8001766:	42a0      	cmp	r0, r4
 8001768:	d03f      	beq.n	80017ea <HAL_GPIO_Init+0x1be>
 800176a:	f504 6480 	add.w	r4, r4, #1024	; 0x400
 800176e:	42a0      	cmp	r0, r4
 8001770:	d03d      	beq.n	80017ee <HAL_GPIO_Init+0x1c2>
 8001772:	f504 6480 	add.w	r4, r4, #1024	; 0x400
 8001776:	42a0      	cmp	r0, r4
 8001778:	bf14      	ite	ne
 800177a:	240a      	movne	r4, #10
 800177c:	2409      	moveq	r4, #9
 800177e:	40bc      	lsls	r4, r7
 8001780:	03d7      	lsls	r7, r2, #15
 8001782:	ea44 040e 	orr.w	r4, r4, lr
 8001786:	60b4      	str	r4, [r6, #8]
 8001788:	ea6f 0605 	mvn.w	r6, r5
 800178c:	f8dc 4000 	ldr.w	r4, [ip]
 8001790:	bf54      	ite	pl
 8001792:	4034      	andpl	r4, r6
 8001794:	432c      	orrmi	r4, r5
 8001796:	0397      	lsls	r7, r2, #14
 8001798:	f8cc 4000 	str.w	r4, [ip]
 800179c:	f8dc 4004 	ldr.w	r4, [ip, #4]
 80017a0:	bf54      	ite	pl
 80017a2:	4034      	andpl	r4, r6
 80017a4:	432c      	orrmi	r4, r5
 80017a6:	02d7      	lsls	r7, r2, #11
 80017a8:	f04f 47b0 	mov.w	r7, #1476395008	; 0x58000000
 80017ac:	f8cc 4004 	str.w	r4, [ip, #4]
 80017b0:	f8d9 4000 	ldr.w	r4, [r9]
 80017b4:	bf54      	ite	pl
 80017b6:	4034      	andpl	r4, r6
 80017b8:	432c      	orrmi	r4, r5
 80017ba:	0292      	lsls	r2, r2, #10
 80017bc:	603c      	str	r4, [r7, #0]
 80017be:	687c      	ldr	r4, [r7, #4]
 80017c0:	bf54      	ite	pl
 80017c2:	4034      	andpl	r4, r6
 80017c4:	432c      	orrmi	r4, r5
 80017c6:	f8c9 4004 	str.w	r4, [r9, #4]
 80017ca:	3301      	adds	r3, #1
 80017cc:	e73a      	b.n	8001644 <HAL_GPIO_Init+0x18>
 80017ce:	2400      	movs	r4, #0
 80017d0:	e7d5      	b.n	800177e <HAL_GPIO_Init+0x152>
 80017d2:	2401      	movs	r4, #1
 80017d4:	e7d3      	b.n	800177e <HAL_GPIO_Init+0x152>
 80017d6:	2402      	movs	r4, #2
 80017d8:	e7d1      	b.n	800177e <HAL_GPIO_Init+0x152>
 80017da:	2403      	movs	r4, #3
 80017dc:	e7cf      	b.n	800177e <HAL_GPIO_Init+0x152>
 80017de:	2404      	movs	r4, #4
 80017e0:	e7cd      	b.n	800177e <HAL_GPIO_Init+0x152>
 80017e2:	2405      	movs	r4, #5
 80017e4:	e7cb      	b.n	800177e <HAL_GPIO_Init+0x152>
 80017e6:	2406      	movs	r4, #6
 80017e8:	e7c9      	b.n	800177e <HAL_GPIO_Init+0x152>
 80017ea:	2407      	movs	r4, #7
 80017ec:	e7c7      	b.n	800177e <HAL_GPIO_Init+0x152>
 80017ee:	2408      	movs	r4, #8
 80017f0:	e7c5      	b.n	800177e <HAL_GPIO_Init+0x152>
 80017f2:	bf00      	nop
 80017f4:	58020000 	.word	0x58020000
 80017f8:	58024400 	.word	0x58024400
 80017fc:	58000080 	.word	0x58000080

08001800 <HAL_GPIO_WritePin>:
 8001800:	b10a      	cbz	r2, 8001806 <HAL_GPIO_WritePin+0x6>
 8001802:	6181      	str	r1, [r0, #24]
 8001804:	4770      	bx	lr
 8001806:	0409      	lsls	r1, r1, #16
 8001808:	e7fb      	b.n	8001802 <HAL_GPIO_WritePin+0x2>

0800180a <HAL_PCD_Init>:
 800180a:	b5f0      	push	{r4, r5, r6, r7, lr}
 800180c:	4604      	mov	r4, r0
 800180e:	b08b      	sub	sp, #44	; 0x2c
 8001810:	b360      	cbz	r0, 800186c <HAL_PCD_Init+0x62>
 8001812:	f890 33bd 	ldrb.w	r3, [r0, #957]	; 0x3bd
 8001816:	6805      	ldr	r5, [r0, #0]
 8001818:	f003 02ff 	and.w	r2, r3, #255	; 0xff
 800181c:	b91b      	cbnz	r3, 8001826 <HAL_PCD_Init+0x1c>
 800181e:	f880 23bc 	strb.w	r2, [r0, #956]	; 0x3bc
 8001822:	f7ff f9b5 	bl	8000b90 <HAL_PCD_MspInit>
 8001826:	2303      	movs	r3, #3
 8001828:	466e      	mov	r6, sp
 800182a:	1d27      	adds	r7, r4, #4
 800182c:	f884 33bd 	strb.w	r3, [r4, #957]	; 0x3bd
 8001830:	6beb      	ldr	r3, [r5, #60]	; 0x3c
 8001832:	4625      	mov	r5, r4
 8001834:	f413 7380 	ands.w	r3, r3, #256	; 0x100
 8001838:	f855 0b10 	ldr.w	r0, [r5], #16
 800183c:	bf08      	it	eq
 800183e:	6123      	streq	r3, [r4, #16]
 8001840:	f002 f8eb 	bl	8003a1a <USB_DisableGlobalInt>
 8001844:	cd0f      	ldmia	r5!, {r0, r1, r2, r3}
 8001846:	c60f      	stmia	r6!, {r0, r1, r2, r3}
 8001848:	cd0f      	ldmia	r5!, {r0, r1, r2, r3}
 800184a:	c60f      	stmia	r6!, {r0, r1, r2, r3}
 800184c:	e895 0003 	ldmia.w	r5, {r0, r1}
 8001850:	4625      	mov	r5, r4
 8001852:	e886 0003 	stmia.w	r6, {r0, r1}
 8001856:	e897 000e 	ldmia.w	r7, {r1, r2, r3}
 800185a:	f855 0b10 	ldr.w	r0, [r5], #16
 800185e:	f002 f89b 	bl	8003998 <USB_CoreInit>
 8001862:	4606      	mov	r6, r0
 8001864:	b120      	cbz	r0, 8001870 <HAL_PCD_Init+0x66>
 8001866:	2302      	movs	r3, #2
 8001868:	f884 33bd 	strb.w	r3, [r4, #957]	; 0x3bd
 800186c:	2501      	movs	r5, #1
 800186e:	e054      	b.n	800191a <HAL_PCD_Init+0x110>
 8001870:	4601      	mov	r1, r0
 8001872:	6820      	ldr	r0, [r4, #0]
 8001874:	f002 f8d7 	bl	8003a26 <USB_SetCurrentMode>
 8001878:	4630      	mov	r0, r6
 800187a:	f8d4 c004 	ldr.w	ip, [r4, #4]
 800187e:	261c      	movs	r6, #28
 8001880:	f04f 0e01 	mov.w	lr, #1
 8001884:	4601      	mov	r1, r0
 8001886:	b2c2      	uxtb	r2, r0
 8001888:	3001      	adds	r0, #1
 800188a:	4594      	cmp	ip, r2
 800188c:	d81b      	bhi.n	80018c6 <HAL_PCD_Init+0xbc>
 800188e:	2300      	movs	r3, #0
 8001890:	261c      	movs	r6, #28
 8001892:	4619      	mov	r1, r3
 8001894:	b2d8      	uxtb	r0, r3
 8001896:	3301      	adds	r3, #1
 8001898:	4584      	cmp	ip, r0
 800189a:	d822      	bhi.n	80018e2 <HAL_PCD_Init+0xd8>
 800189c:	466e      	mov	r6, sp
 800189e:	cd0f      	ldmia	r5!, {r0, r1, r2, r3}
 80018a0:	c60f      	stmia	r6!, {r0, r1, r2, r3}
 80018a2:	cd0f      	ldmia	r5!, {r0, r1, r2, r3}
 80018a4:	c60f      	stmia	r6!, {r0, r1, r2, r3}
 80018a6:	e895 0003 	ldmia.w	r5, {r0, r1}
 80018aa:	e886 0003 	stmia.w	r6, {r0, r1}
 80018ae:	e897 000e 	ldmia.w	r7, {r1, r2, r3}
 80018b2:	6820      	ldr	r0, [r4, #0]
 80018b4:	f002 f8f8 	bl	8003aa8 <USB_DevInit>
 80018b8:	2301      	movs	r3, #1
 80018ba:	4605      	mov	r5, r0
 80018bc:	b300      	cbz	r0, 8001900 <HAL_PCD_Init+0xf6>
 80018be:	2202      	movs	r2, #2
 80018c0:	f884 23bd 	strb.w	r2, [r4, #957]	; 0x3bd
 80018c4:	e7d2      	b.n	800186c <HAL_PCD_Init+0x62>
 80018c6:	fb06 4302 	mla	r3, r6, r2, r4
 80018ca:	f883 e03d 	strb.w	lr, [r3, #61]	; 0x3d
 80018ce:	f883 203c 	strb.w	r2, [r3, #60]	; 0x3c
 80018d2:	f8a3 2042 	strh.w	r2, [r3, #66]	; 0x42
 80018d6:	f883 103f 	strb.w	r1, [r3, #63]	; 0x3f
 80018da:	6519      	str	r1, [r3, #80]	; 0x50
 80018dc:	e9c3 1111 	strd	r1, r1, [r3, #68]	; 0x44
 80018e0:	e7d1      	b.n	8001886 <HAL_PCD_Init+0x7c>
 80018e2:	fb06 4200 	mla	r2, r6, r0, r4
 80018e6:	f882 11fd 	strb.w	r1, [r2, #509]	; 0x1fd
 80018ea:	f882 01fc 	strb.w	r0, [r2, #508]	; 0x1fc
 80018ee:	f882 11ff 	strb.w	r1, [r2, #511]	; 0x1ff
 80018f2:	f8c2 1204 	str.w	r1, [r2, #516]	; 0x204
 80018f6:	f8c2 1208 	str.w	r1, [r2, #520]	; 0x208
 80018fa:	f8c2 1210 	str.w	r1, [r2, #528]	; 0x210
 80018fe:	e7c9      	b.n	8001894 <HAL_PCD_Init+0x8a>
 8001900:	f884 0038 	strb.w	r0, [r4, #56]	; 0x38
 8001904:	f884 33bd 	strb.w	r3, [r4, #957]	; 0x3bd
 8001908:	6a63      	ldr	r3, [r4, #36]	; 0x24
 800190a:	2b01      	cmp	r3, #1
 800190c:	d102      	bne.n	8001914 <HAL_PCD_Init+0x10a>
 800190e:	4620      	mov	r0, r4
 8001910:	f000 f806 	bl	8001920 <HAL_PCDEx_ActivateLPM>
 8001914:	6820      	ldr	r0, [r4, #0]
 8001916:	f002 f97f 	bl	8003c18 <USB_DevDisconnect>
 800191a:	4628      	mov	r0, r5
 800191c:	b00b      	add	sp, #44	; 0x2c
 800191e:	bdf0      	pop	{r4, r5, r6, r7, pc}

08001920 <HAL_PCDEx_ActivateLPM>:
 8001920:	2101      	movs	r1, #1
 8001922:	6802      	ldr	r2, [r0, #0]
 8001924:	4603      	mov	r3, r0
 8001926:	f8c0 13fc 	str.w	r1, [r0, #1020]	; 0x3fc
 800192a:	2000      	movs	r0, #0
 800192c:	f883 03f4 	strb.w	r0, [r3, #1012]	; 0x3f4
 8001930:	6993      	ldr	r3, [r2, #24]
 8001932:	f043 6300 	orr.w	r3, r3, #134217728	; 0x8000000
 8001936:	6193      	str	r3, [r2, #24]
 8001938:	6d53      	ldr	r3, [r2, #84]	; 0x54
 800193a:	f043 5380 	orr.w	r3, r3, #268435456	; 0x10000000
 800193e:	f043 0303 	orr.w	r3, r3, #3
 8001942:	6553      	str	r3, [r2, #84]	; 0x54
 8001944:	4770      	bx	lr
	...

08001948 <HAL_PWREx_ConfigSupply>:
 8001948:	b538      	push	{r3, r4, r5, lr}
 800194a:	4c10      	ldr	r4, [pc, #64]	; (800198c <HAL_PWREx_ConfigSupply+0x44>)
 800194c:	68e3      	ldr	r3, [r4, #12]
 800194e:	f013 0f04 	tst.w	r3, #4
 8001952:	68e3      	ldr	r3, [r4, #12]
 8001954:	d105      	bne.n	8001962 <HAL_PWREx_ConfigSupply+0x1a>
 8001956:	f003 0307 	and.w	r3, r3, #7
 800195a:	1a18      	subs	r0, r3, r0
 800195c:	bf18      	it	ne
 800195e:	2001      	movne	r0, #1
 8001960:	bd38      	pop	{r3, r4, r5, pc}
 8001962:	f023 0307 	bic.w	r3, r3, #7
 8001966:	4318      	orrs	r0, r3
 8001968:	60e0      	str	r0, [r4, #12]
 800196a:	f7ff fa9b 	bl	8000ea4 <HAL_GetTick>
 800196e:	4605      	mov	r5, r0
 8001970:	6863      	ldr	r3, [r4, #4]
 8001972:	049b      	lsls	r3, r3, #18
 8001974:	d501      	bpl.n	800197a <HAL_PWREx_ConfigSupply+0x32>
 8001976:	2000      	movs	r0, #0
 8001978:	e7f2      	b.n	8001960 <HAL_PWREx_ConfigSupply+0x18>
 800197a:	f7ff fa93 	bl	8000ea4 <HAL_GetTick>
 800197e:	1b40      	subs	r0, r0, r5
 8001980:	f5b0 7f7a 	cmp.w	r0, #1000	; 0x3e8
 8001984:	d9f4      	bls.n	8001970 <HAL_PWREx_ConfigSupply+0x28>
 8001986:	2001      	movs	r0, #1
 8001988:	e7ea      	b.n	8001960 <HAL_PWREx_ConfigSupply+0x18>
 800198a:	bf00      	nop
 800198c:	58024800 	.word	0x58024800

08001990 <HAL_PWREx_EnableUSBVoltageDetector>:
 8001990:	4a02      	ldr	r2, [pc, #8]	; (800199c <HAL_PWREx_EnableUSBVoltageDetector+0xc>)
 8001992:	68d3      	ldr	r3, [r2, #12]
 8001994:	f043 7380 	orr.w	r3, r3, #16777216	; 0x1000000
 8001998:	60d3      	str	r3, [r2, #12]
 800199a:	4770      	bx	lr
 800199c:	58024800 	.word	0x58024800

080019a0 <HAL_RCC_OscConfig>:
 80019a0:	b5f8      	push	{r3, r4, r5, r6, r7, lr}
 80019a2:	4604      	mov	r4, r0
 80019a4:	b908      	cbnz	r0, 80019aa <HAL_RCC_OscConfig+0xa>
 80019a6:	2001      	movs	r0, #1
 80019a8:	e08c      	b.n	8001ac4 <HAL_RCC_OscConfig+0x124>
 80019aa:	6803      	ldr	r3, [r0, #0]
 80019ac:	07d8      	lsls	r0, r3, #31
 80019ae:	d45e      	bmi.n	8001a6e <HAL_RCC_OscConfig+0xce>
 80019b0:	6823      	ldr	r3, [r4, #0]
 80019b2:	0799      	lsls	r1, r3, #30
 80019b4:	f100 80ac 	bmi.w	8001b10 <HAL_RCC_OscConfig+0x170>
 80019b8:	6823      	ldr	r3, [r4, #0]
 80019ba:	06da      	lsls	r2, r3, #27
 80019bc:	d527      	bpl.n	8001a0e <HAL_RCC_OscConfig+0x6e>
 80019be:	4ba8      	ldr	r3, [pc, #672]	; (8001c60 <HAL_RCC_OscConfig+0x2c0>)
 80019c0:	691a      	ldr	r2, [r3, #16]
 80019c2:	6a99      	ldr	r1, [r3, #40]	; 0x28
 80019c4:	f002 0238 	and.w	r2, r2, #56	; 0x38
 80019c8:	2a08      	cmp	r2, #8
 80019ca:	d007      	beq.n	80019dc <HAL_RCC_OscConfig+0x3c>
 80019cc:	2a18      	cmp	r2, #24
 80019ce:	f040 810a 	bne.w	8001be6 <HAL_RCC_OscConfig+0x246>
 80019d2:	f001 0203 	and.w	r2, r1, #3
 80019d6:	2a01      	cmp	r2, #1
 80019d8:	f040 8105 	bne.w	8001be6 <HAL_RCC_OscConfig+0x246>
 80019dc:	681b      	ldr	r3, [r3, #0]
 80019de:	05db      	lsls	r3, r3, #23
 80019e0:	d502      	bpl.n	80019e8 <HAL_RCC_OscConfig+0x48>
 80019e2:	69e3      	ldr	r3, [r4, #28]
 80019e4:	2b80      	cmp	r3, #128	; 0x80
 80019e6:	d1de      	bne.n	80019a6 <HAL_RCC_OscConfig+0x6>
 80019e8:	f7ff fa74 	bl	8000ed4 <HAL_GetREVID>
 80019ec:	f241 0303 	movw	r3, #4099	; 0x1003
 80019f0:	6a21      	ldr	r1, [r4, #32]
 80019f2:	4298      	cmp	r0, r3
 80019f4:	4b9a      	ldr	r3, [pc, #616]	; (8001c60 <HAL_RCC_OscConfig+0x2c0>)
 80019f6:	f200 80ef 	bhi.w	8001bd8 <HAL_RCC_OscConfig+0x238>
 80019fa:	685a      	ldr	r2, [r3, #4]
 80019fc:	2920      	cmp	r1, #32
 80019fe:	f022 42f8 	bic.w	r2, r2, #2080374784	; 0x7c000000
 8001a02:	bf0c      	ite	eq
 8001a04:	f042 4280 	orreq.w	r2, r2, #1073741824	; 0x40000000
 8001a08:	ea42 6281 	orrne.w	r2, r2, r1, lsl #26
 8001a0c:	605a      	str	r2, [r3, #4]
 8001a0e:	6823      	ldr	r3, [r4, #0]
 8001a10:	0719      	lsls	r1, r3, #28
 8001a12:	f100 8129 	bmi.w	8001c68 <HAL_RCC_OscConfig+0x2c8>
 8001a16:	6823      	ldr	r3, [r4, #0]
 8001a18:	069a      	lsls	r2, r3, #26
 8001a1a:	f100 814a 	bmi.w	8001cb2 <HAL_RCC_OscConfig+0x312>
 8001a1e:	6823      	ldr	r3, [r4, #0]
 8001a20:	075d      	lsls	r5, r3, #29
 8001a22:	d51e      	bpl.n	8001a62 <HAL_RCC_OscConfig+0xc2>
 8001a24:	4d8f      	ldr	r5, [pc, #572]	; (8001c64 <HAL_RCC_OscConfig+0x2c4>)
 8001a26:	682b      	ldr	r3, [r5, #0]
 8001a28:	f443 7380 	orr.w	r3, r3, #256	; 0x100
 8001a2c:	602b      	str	r3, [r5, #0]
 8001a2e:	f7ff fa39 	bl	8000ea4 <HAL_GetTick>
 8001a32:	4606      	mov	r6, r0
 8001a34:	682b      	ldr	r3, [r5, #0]
 8001a36:	05da      	lsls	r2, r3, #23
 8001a38:	f140 8160 	bpl.w	8001cfc <HAL_RCC_OscConfig+0x35c>
 8001a3c:	68a3      	ldr	r3, [r4, #8]
 8001a3e:	4d88      	ldr	r5, [pc, #544]	; (8001c60 <HAL_RCC_OscConfig+0x2c0>)
 8001a40:	2b01      	cmp	r3, #1
 8001a42:	f040 8162 	bne.w	8001d0a <HAL_RCC_OscConfig+0x36a>
 8001a46:	6f2b      	ldr	r3, [r5, #112]	; 0x70
 8001a48:	f043 0301 	orr.w	r3, r3, #1
 8001a4c:	672b      	str	r3, [r5, #112]	; 0x70
 8001a4e:	f241 3588 	movw	r5, #5000	; 0x1388
 8001a52:	f7ff fa27 	bl	8000ea4 <HAL_GetTick>
 8001a56:	4e82      	ldr	r6, [pc, #520]	; (8001c60 <HAL_RCC_OscConfig+0x2c0>)
 8001a58:	4607      	mov	r7, r0
 8001a5a:	6f33      	ldr	r3, [r6, #112]	; 0x70
 8001a5c:	079b      	lsls	r3, r3, #30
 8001a5e:	f140 817a 	bpl.w	8001d56 <HAL_RCC_OscConfig+0x3b6>
 8001a62:	6a60      	ldr	r0, [r4, #36]	; 0x24
 8001a64:	2800      	cmp	r0, #0
 8001a66:	f040 817d 	bne.w	8001d64 <HAL_RCC_OscConfig+0x3c4>
 8001a6a:	2000      	movs	r0, #0
 8001a6c:	e02a      	b.n	8001ac4 <HAL_RCC_OscConfig+0x124>
 8001a6e:	4b7c      	ldr	r3, [pc, #496]	; (8001c60 <HAL_RCC_OscConfig+0x2c0>)
 8001a70:	691a      	ldr	r2, [r3, #16]
 8001a72:	6a99      	ldr	r1, [r3, #40]	; 0x28
 8001a74:	f002 0238 	and.w	r2, r2, #56	; 0x38
 8001a78:	2a10      	cmp	r2, #16
 8001a7a:	d005      	beq.n	8001a88 <HAL_RCC_OscConfig+0xe8>
 8001a7c:	2a18      	cmp	r2, #24
 8001a7e:	d10a      	bne.n	8001a96 <HAL_RCC_OscConfig+0xf6>
 8001a80:	f001 0203 	and.w	r2, r1, #3
 8001a84:	2a02      	cmp	r2, #2
 8001a86:	d106      	bne.n	8001a96 <HAL_RCC_OscConfig+0xf6>
 8001a88:	681b      	ldr	r3, [r3, #0]
 8001a8a:	039a      	lsls	r2, r3, #14
 8001a8c:	d590      	bpl.n	80019b0 <HAL_RCC_OscConfig+0x10>
 8001a8e:	6863      	ldr	r3, [r4, #4]
 8001a90:	2b00      	cmp	r3, #0
 8001a92:	d18d      	bne.n	80019b0 <HAL_RCC_OscConfig+0x10>
 8001a94:	e787      	b.n	80019a6 <HAL_RCC_OscConfig+0x6>
 8001a96:	6863      	ldr	r3, [r4, #4]
 8001a98:	4d71      	ldr	r5, [pc, #452]	; (8001c60 <HAL_RCC_OscConfig+0x2c0>)
 8001a9a:	f5b3 3f80 	cmp.w	r3, #65536	; 0x10000
 8001a9e:	d112      	bne.n	8001ac6 <HAL_RCC_OscConfig+0x126>
 8001aa0:	682b      	ldr	r3, [r5, #0]
 8001aa2:	f443 3380 	orr.w	r3, r3, #65536	; 0x10000
 8001aa6:	602b      	str	r3, [r5, #0]
 8001aa8:	f7ff f9fc 	bl	8000ea4 <HAL_GetTick>
 8001aac:	4d6c      	ldr	r5, [pc, #432]	; (8001c60 <HAL_RCC_OscConfig+0x2c0>)
 8001aae:	4606      	mov	r6, r0
 8001ab0:	682b      	ldr	r3, [r5, #0]
 8001ab2:	039b      	lsls	r3, r3, #14
 8001ab4:	f53f af7c 	bmi.w	80019b0 <HAL_RCC_OscConfig+0x10>
 8001ab8:	f7ff f9f4 	bl	8000ea4 <HAL_GetTick>
 8001abc:	1b80      	subs	r0, r0, r6
 8001abe:	2864      	cmp	r0, #100	; 0x64
 8001ac0:	d9f6      	bls.n	8001ab0 <HAL_RCC_OscConfig+0x110>
 8001ac2:	2003      	movs	r0, #3
 8001ac4:	bdf8      	pop	{r3, r4, r5, r6, r7, pc}
 8001ac6:	b9a3      	cbnz	r3, 8001af2 <HAL_RCC_OscConfig+0x152>
 8001ac8:	682b      	ldr	r3, [r5, #0]
 8001aca:	f423 3380 	bic.w	r3, r3, #65536	; 0x10000
 8001ace:	602b      	str	r3, [r5, #0]
 8001ad0:	682b      	ldr	r3, [r5, #0]
 8001ad2:	f423 2380 	bic.w	r3, r3, #262144	; 0x40000
 8001ad6:	602b      	str	r3, [r5, #0]
 8001ad8:	f7ff f9e4 	bl	8000ea4 <HAL_GetTick>
 8001adc:	4606      	mov	r6, r0
 8001ade:	682b      	ldr	r3, [r5, #0]
 8001ae0:	039f      	lsls	r7, r3, #14
 8001ae2:	f57f af65 	bpl.w	80019b0 <HAL_RCC_OscConfig+0x10>
 8001ae6:	f7ff f9dd 	bl	8000ea4 <HAL_GetTick>
 8001aea:	1b80      	subs	r0, r0, r6
 8001aec:	2864      	cmp	r0, #100	; 0x64
 8001aee:	d9f6      	bls.n	8001ade <HAL_RCC_OscConfig+0x13e>
 8001af0:	e7e7      	b.n	8001ac2 <HAL_RCC_OscConfig+0x122>
 8001af2:	f5b3 2fa0 	cmp.w	r3, #327680	; 0x50000
 8001af6:	682b      	ldr	r3, [r5, #0]
 8001af8:	d103      	bne.n	8001b02 <HAL_RCC_OscConfig+0x162>
 8001afa:	f443 2380 	orr.w	r3, r3, #262144	; 0x40000
 8001afe:	602b      	str	r3, [r5, #0]
 8001b00:	e7ce      	b.n	8001aa0 <HAL_RCC_OscConfig+0x100>
 8001b02:	f423 3380 	bic.w	r3, r3, #65536	; 0x10000
 8001b06:	602b      	str	r3, [r5, #0]
 8001b08:	682b      	ldr	r3, [r5, #0]
 8001b0a:	f423 2380 	bic.w	r3, r3, #262144	; 0x40000
 8001b0e:	e7ca      	b.n	8001aa6 <HAL_RCC_OscConfig+0x106>
 8001b10:	4b53      	ldr	r3, [pc, #332]	; (8001c60 <HAL_RCC_OscConfig+0x2c0>)
 8001b12:	691a      	ldr	r2, [r3, #16]
 8001b14:	6a99      	ldr	r1, [r3, #40]	; 0x28
 8001b16:	f012 0238 	ands.w	r2, r2, #56	; 0x38
 8001b1a:	d003      	beq.n	8001b24 <HAL_RCC_OscConfig+0x184>
 8001b1c:	2a18      	cmp	r2, #24
 8001b1e:	d120      	bne.n	8001b62 <HAL_RCC_OscConfig+0x1c2>
 8001b20:	078e      	lsls	r6, r1, #30
 8001b22:	d11e      	bne.n	8001b62 <HAL_RCC_OscConfig+0x1c2>
 8001b24:	681b      	ldr	r3, [r3, #0]
 8001b26:	075d      	lsls	r5, r3, #29
 8001b28:	d503      	bpl.n	8001b32 <HAL_RCC_OscConfig+0x192>
 8001b2a:	68e3      	ldr	r3, [r4, #12]
 8001b2c:	2b00      	cmp	r3, #0
 8001b2e:	f43f af3a 	beq.w	80019a6 <HAL_RCC_OscConfig+0x6>
 8001b32:	f7ff f9cf 	bl	8000ed4 <HAL_GetREVID>
 8001b36:	f241 0303 	movw	r3, #4099	; 0x1003
 8001b3a:	6921      	ldr	r1, [r4, #16]
 8001b3c:	4298      	cmp	r0, r3
 8001b3e:	4b48      	ldr	r3, [pc, #288]	; (8001c60 <HAL_RCC_OscConfig+0x2c0>)
 8001b40:	685a      	ldr	r2, [r3, #4]
 8001b42:	d809      	bhi.n	8001b58 <HAL_RCC_OscConfig+0x1b8>
 8001b44:	f422 327c 	bic.w	r2, r2, #258048	; 0x3f000
 8001b48:	2940      	cmp	r1, #64	; 0x40
 8001b4a:	bf0c      	ite	eq
 8001b4c:	f442 3200 	orreq.w	r2, r2, #131072	; 0x20000
 8001b50:	ea42 3201 	orrne.w	r2, r2, r1, lsl #12
 8001b54:	605a      	str	r2, [r3, #4]
 8001b56:	e72f      	b.n	80019b8 <HAL_RCC_OscConfig+0x18>
 8001b58:	f022 42fe 	bic.w	r2, r2, #2130706432	; 0x7f000000
 8001b5c:	ea42 6201 	orr.w	r2, r2, r1, lsl #24
 8001b60:	e7f8      	b.n	8001b54 <HAL_RCC_OscConfig+0x1b4>
 8001b62:	4d3f      	ldr	r5, [pc, #252]	; (8001c60 <HAL_RCC_OscConfig+0x2c0>)
 8001b64:	68e2      	ldr	r2, [r4, #12]
 8001b66:	682b      	ldr	r3, [r5, #0]
 8001b68:	b332      	cbz	r2, 8001bb8 <HAL_RCC_OscConfig+0x218>
 8001b6a:	f023 0319 	bic.w	r3, r3, #25
 8001b6e:	4313      	orrs	r3, r2
 8001b70:	602b      	str	r3, [r5, #0]
 8001b72:	f7ff f997 	bl	8000ea4 <HAL_GetTick>
 8001b76:	4606      	mov	r6, r0
 8001b78:	682b      	ldr	r3, [r5, #0]
 8001b7a:	0758      	lsls	r0, r3, #29
 8001b7c:	d511      	bpl.n	8001ba2 <HAL_RCC_OscConfig+0x202>
 8001b7e:	f7ff f9a9 	bl	8000ed4 <HAL_GetREVID>
 8001b82:	f241 0303 	movw	r3, #4099	; 0x1003
 8001b86:	6922      	ldr	r2, [r4, #16]
 8001b88:	4298      	cmp	r0, r3
 8001b8a:	686b      	ldr	r3, [r5, #4]
 8001b8c:	d80f      	bhi.n	8001bae <HAL_RCC_OscConfig+0x20e>
 8001b8e:	f423 337c 	bic.w	r3, r3, #258048	; 0x3f000
 8001b92:	2a40      	cmp	r2, #64	; 0x40
 8001b94:	bf0c      	ite	eq
 8001b96:	f443 3300 	orreq.w	r3, r3, #131072	; 0x20000
 8001b9a:	ea43 3302 	orrne.w	r3, r3, r2, lsl #12
 8001b9e:	606b      	str	r3, [r5, #4]
 8001ba0:	e70a      	b.n	80019b8 <HAL_RCC_OscConfig+0x18>
 8001ba2:	f7ff f97f 	bl	8000ea4 <HAL_GetTick>
 8001ba6:	1b80      	subs	r0, r0, r6
 8001ba8:	2802      	cmp	r0, #2
 8001baa:	d9e5      	bls.n	8001b78 <HAL_RCC_OscConfig+0x1d8>
 8001bac:	e789      	b.n	8001ac2 <HAL_RCC_OscConfig+0x122>
 8001bae:	f023 43fe 	bic.w	r3, r3, #2130706432	; 0x7f000000
 8001bb2:	ea43 6302 	orr.w	r3, r3, r2, lsl #24
 8001bb6:	e7f2      	b.n	8001b9e <HAL_RCC_OscConfig+0x1fe>
 8001bb8:	f023 0301 	bic.w	r3, r3, #1
 8001bbc:	602b      	str	r3, [r5, #0]
 8001bbe:	f7ff f971 	bl	8000ea4 <HAL_GetTick>
 8001bc2:	4606      	mov	r6, r0
 8001bc4:	682b      	ldr	r3, [r5, #0]
 8001bc6:	0759      	lsls	r1, r3, #29
 8001bc8:	f57f aef6 	bpl.w	80019b8 <HAL_RCC_OscConfig+0x18>
 8001bcc:	f7ff f96a 	bl	8000ea4 <HAL_GetTick>
 8001bd0:	1b80      	subs	r0, r0, r6
 8001bd2:	2802      	cmp	r0, #2
 8001bd4:	d9f6      	bls.n	8001bc4 <HAL_RCC_OscConfig+0x224>
 8001bd6:	e774      	b.n	8001ac2 <HAL_RCC_OscConfig+0x122>
 8001bd8:	68da      	ldr	r2, [r3, #12]
 8001bda:	f022 527c 	bic.w	r2, r2, #1056964608	; 0x3f000000
 8001bde:	ea42 6201 	orr.w	r2, r2, r1, lsl #24
 8001be2:	60da      	str	r2, [r3, #12]
 8001be4:	e713      	b.n	8001a0e <HAL_RCC_OscConfig+0x6e>
 8001be6:	69e3      	ldr	r3, [r4, #28]
 8001be8:	4d1d      	ldr	r5, [pc, #116]	; (8001c60 <HAL_RCC_OscConfig+0x2c0>)
 8001bea:	b343      	cbz	r3, 8001c3e <HAL_RCC_OscConfig+0x29e>
 8001bec:	682b      	ldr	r3, [r5, #0]
 8001bee:	f043 0380 	orr.w	r3, r3, #128	; 0x80
 8001bf2:	602b      	str	r3, [r5, #0]
 8001bf4:	f7ff f956 	bl	8000ea4 <HAL_GetTick>
 8001bf8:	4606      	mov	r6, r0
 8001bfa:	682b      	ldr	r3, [r5, #0]
 8001bfc:	05df      	lsls	r7, r3, #23
 8001bfe:	d511      	bpl.n	8001c24 <HAL_RCC_OscConfig+0x284>
 8001c00:	f7ff f968 	bl	8000ed4 <HAL_GetREVID>
 8001c04:	f241 0303 	movw	r3, #4099	; 0x1003
 8001c08:	6a22      	ldr	r2, [r4, #32]
 8001c0a:	4298      	cmp	r0, r3
 8001c0c:	d810      	bhi.n	8001c30 <HAL_RCC_OscConfig+0x290>
 8001c0e:	686b      	ldr	r3, [r5, #4]
 8001c10:	2a20      	cmp	r2, #32
 8001c12:	f023 43f8 	bic.w	r3, r3, #2080374784	; 0x7c000000
 8001c16:	bf0c      	ite	eq
 8001c18:	f043 4380 	orreq.w	r3, r3, #1073741824	; 0x40000000
 8001c1c:	ea43 6382 	orrne.w	r3, r3, r2, lsl #26
 8001c20:	606b      	str	r3, [r5, #4]
 8001c22:	e6f4      	b.n	8001a0e <HAL_RCC_OscConfig+0x6e>
 8001c24:	f7ff f93e 	bl	8000ea4 <HAL_GetTick>
 8001c28:	1b80      	subs	r0, r0, r6
 8001c2a:	2802      	cmp	r0, #2
 8001c2c:	d9e5      	bls.n	8001bfa <HAL_RCC_OscConfig+0x25a>
 8001c2e:	e748      	b.n	8001ac2 <HAL_RCC_OscConfig+0x122>
 8001c30:	68eb      	ldr	r3, [r5, #12]
 8001c32:	f023 537c 	bic.w	r3, r3, #1056964608	; 0x3f000000
 8001c36:	ea43 6302 	orr.w	r3, r3, r2, lsl #24
 8001c3a:	60eb      	str	r3, [r5, #12]
 8001c3c:	e6e7      	b.n	8001a0e <HAL_RCC_OscConfig+0x6e>
 8001c3e:	682b      	ldr	r3, [r5, #0]
 8001c40:	f023 0380 	bic.w	r3, r3, #128	; 0x80
 8001c44:	602b      	str	r3, [r5, #0]
 8001c46:	f7ff f92d 	bl	8000ea4 <HAL_GetTick>
 8001c4a:	4606      	mov	r6, r0
 8001c4c:	682b      	ldr	r3, [r5, #0]
 8001c4e:	05d8      	lsls	r0, r3, #23
 8001c50:	f57f aedd 	bpl.w	8001a0e <HAL_RCC_OscConfig+0x6e>
 8001c54:	f7ff f926 	bl	8000ea4 <HAL_GetTick>
 8001c58:	1b80      	subs	r0, r0, r6
 8001c5a:	2802      	cmp	r0, #2
 8001c5c:	d9f6      	bls.n	8001c4c <HAL_RCC_OscConfig+0x2ac>
 8001c5e:	e730      	b.n	8001ac2 <HAL_RCC_OscConfig+0x122>
 8001c60:	58024400 	.word	0x58024400
 8001c64:	58024800 	.word	0x58024800
 8001c68:	6963      	ldr	r3, [r4, #20]
 8001c6a:	4d96      	ldr	r5, [pc, #600]	; (8001ec4 <HAL_RCC_OscConfig+0x524>)
 8001c6c:	b183      	cbz	r3, 8001c90 <HAL_RCC_OscConfig+0x2f0>
 8001c6e:	6f6b      	ldr	r3, [r5, #116]	; 0x74
 8001c70:	f043 0301 	orr.w	r3, r3, #1
 8001c74:	676b      	str	r3, [r5, #116]	; 0x74
 8001c76:	f7ff f915 	bl	8000ea4 <HAL_GetTick>
 8001c7a:	4606      	mov	r6, r0
 8001c7c:	6f6b      	ldr	r3, [r5, #116]	; 0x74
 8001c7e:	079b      	lsls	r3, r3, #30
 8001c80:	f53f aec9 	bmi.w	8001a16 <HAL_RCC_OscConfig+0x76>
 8001c84:	f7ff f90e 	bl	8000ea4 <HAL_GetTick>
 8001c88:	1b80      	subs	r0, r0, r6
 8001c8a:	2802      	cmp	r0, #2
 8001c8c:	d9f6      	bls.n	8001c7c <HAL_RCC_OscConfig+0x2dc>
 8001c8e:	e718      	b.n	8001ac2 <HAL_RCC_OscConfig+0x122>
 8001c90:	6f6b      	ldr	r3, [r5, #116]	; 0x74
 8001c92:	f023 0301 	bic.w	r3, r3, #1
 8001c96:	676b      	str	r3, [r5, #116]	; 0x74
 8001c98:	f7ff f904 	bl	8000ea4 <HAL_GetTick>
 8001c9c:	4606      	mov	r6, r0
 8001c9e:	6f6b      	ldr	r3, [r5, #116]	; 0x74
 8001ca0:	079f      	lsls	r7, r3, #30
 8001ca2:	f57f aeb8 	bpl.w	8001a16 <HAL_RCC_OscConfig+0x76>
 8001ca6:	f7ff f8fd 	bl	8000ea4 <HAL_GetTick>
 8001caa:	1b80      	subs	r0, r0, r6
 8001cac:	2802      	cmp	r0, #2
 8001cae:	d9f6      	bls.n	8001c9e <HAL_RCC_OscConfig+0x2fe>
 8001cb0:	e707      	b.n	8001ac2 <HAL_RCC_OscConfig+0x122>
 8001cb2:	69a3      	ldr	r3, [r4, #24]
 8001cb4:	4d83      	ldr	r5, [pc, #524]	; (8001ec4 <HAL_RCC_OscConfig+0x524>)
 8001cb6:	b183      	cbz	r3, 8001cda <HAL_RCC_OscConfig+0x33a>
 8001cb8:	682b      	ldr	r3, [r5, #0]
 8001cba:	f443 5380 	orr.w	r3, r3, #4096	; 0x1000
 8001cbe:	602b      	str	r3, [r5, #0]
 8001cc0:	f7ff f8f0 	bl	8000ea4 <HAL_GetTick>
 8001cc4:	4606      	mov	r6, r0
 8001cc6:	682b      	ldr	r3, [r5, #0]
 8001cc8:	0498      	lsls	r0, r3, #18
 8001cca:	f53f aea8 	bmi.w	8001a1e <HAL_RCC_OscConfig+0x7e>
 8001cce:	f7ff f8e9 	bl	8000ea4 <HAL_GetTick>
 8001cd2:	1b80      	subs	r0, r0, r6
 8001cd4:	2802      	cmp	r0, #2
 8001cd6:	d9f6      	bls.n	8001cc6 <HAL_RCC_OscConfig+0x326>
 8001cd8:	e6f3      	b.n	8001ac2 <HAL_RCC_OscConfig+0x122>
 8001cda:	682b      	ldr	r3, [r5, #0]
 8001cdc:	f423 5380 	bic.w	r3, r3, #4096	; 0x1000
 8001ce0:	602b      	str	r3, [r5, #0]
 8001ce2:	f7ff f8df 	bl	8000ea4 <HAL_GetTick>
 8001ce6:	4606      	mov	r6, r0
 8001ce8:	682b      	ldr	r3, [r5, #0]
 8001cea:	0499      	lsls	r1, r3, #18
 8001cec:	f57f ae97 	bpl.w	8001a1e <HAL_RCC_OscConfig+0x7e>
 8001cf0:	f7ff f8d8 	bl	8000ea4 <HAL_GetTick>
 8001cf4:	1b80      	subs	r0, r0, r6
 8001cf6:	2802      	cmp	r0, #2
 8001cf8:	d9f6      	bls.n	8001ce8 <HAL_RCC_OscConfig+0x348>
 8001cfa:	e6e2      	b.n	8001ac2 <HAL_RCC_OscConfig+0x122>
 8001cfc:	f7ff f8d2 	bl	8000ea4 <HAL_GetTick>
 8001d00:	1b80      	subs	r0, r0, r6
 8001d02:	2864      	cmp	r0, #100	; 0x64
 8001d04:	f67f ae96 	bls.w	8001a34 <HAL_RCC_OscConfig+0x94>
 8001d08:	e6db      	b.n	8001ac2 <HAL_RCC_OscConfig+0x122>
 8001d0a:	b9b3      	cbnz	r3, 8001d3a <HAL_RCC_OscConfig+0x39a>
 8001d0c:	6f2b      	ldr	r3, [r5, #112]	; 0x70
 8001d0e:	f241 3788 	movw	r7, #5000	; 0x1388
 8001d12:	f023 0301 	bic.w	r3, r3, #1
 8001d16:	672b      	str	r3, [r5, #112]	; 0x70
 8001d18:	6f2b      	ldr	r3, [r5, #112]	; 0x70
 8001d1a:	f023 0304 	bic.w	r3, r3, #4
 8001d1e:	672b      	str	r3, [r5, #112]	; 0x70
 8001d20:	f7ff f8c0 	bl	8000ea4 <HAL_GetTick>
 8001d24:	4606      	mov	r6, r0
 8001d26:	6f2b      	ldr	r3, [r5, #112]	; 0x70
 8001d28:	0798      	lsls	r0, r3, #30
 8001d2a:	f57f ae9a 	bpl.w	8001a62 <HAL_RCC_OscConfig+0xc2>
 8001d2e:	f7ff f8b9 	bl	8000ea4 <HAL_GetTick>
 8001d32:	1b80      	subs	r0, r0, r6
 8001d34:	42b8      	cmp	r0, r7
 8001d36:	d9f6      	bls.n	8001d26 <HAL_RCC_OscConfig+0x386>
 8001d38:	e6c3      	b.n	8001ac2 <HAL_RCC_OscConfig+0x122>
 8001d3a:	2b05      	cmp	r3, #5
 8001d3c:	6f2b      	ldr	r3, [r5, #112]	; 0x70
 8001d3e:	d103      	bne.n	8001d48 <HAL_RCC_OscConfig+0x3a8>
 8001d40:	f043 0304 	orr.w	r3, r3, #4
 8001d44:	672b      	str	r3, [r5, #112]	; 0x70
 8001d46:	e67e      	b.n	8001a46 <HAL_RCC_OscConfig+0xa6>
 8001d48:	f023 0301 	bic.w	r3, r3, #1
 8001d4c:	672b      	str	r3, [r5, #112]	; 0x70
 8001d4e:	6f2b      	ldr	r3, [r5, #112]	; 0x70
 8001d50:	f023 0304 	bic.w	r3, r3, #4
 8001d54:	e67a      	b.n	8001a4c <HAL_RCC_OscConfig+0xac>
 8001d56:	f7ff f8a5 	bl	8000ea4 <HAL_GetTick>
 8001d5a:	1bc0      	subs	r0, r0, r7
 8001d5c:	42a8      	cmp	r0, r5
 8001d5e:	f67f ae7c 	bls.w	8001a5a <HAL_RCC_OscConfig+0xba>
 8001d62:	e6ae      	b.n	8001ac2 <HAL_RCC_OscConfig+0x122>
 8001d64:	4d57      	ldr	r5, [pc, #348]	; (8001ec4 <HAL_RCC_OscConfig+0x524>)
 8001d66:	692b      	ldr	r3, [r5, #16]
 8001d68:	f003 0338 	and.w	r3, r3, #56	; 0x38
 8001d6c:	2b18      	cmp	r3, #24
 8001d6e:	d07a      	beq.n	8001e66 <HAL_RCC_OscConfig+0x4c6>
 8001d70:	682b      	ldr	r3, [r5, #0]
 8001d72:	2802      	cmp	r0, #2
 8001d74:	f023 7380 	bic.w	r3, r3, #16777216	; 0x1000000
 8001d78:	602b      	str	r3, [r5, #0]
 8001d7a:	d167      	bne.n	8001e4c <HAL_RCC_OscConfig+0x4ac>
 8001d7c:	f7ff f892 	bl	8000ea4 <HAL_GetTick>
 8001d80:	4606      	mov	r6, r0
 8001d82:	682b      	ldr	r3, [r5, #0]
 8001d84:	0199      	lsls	r1, r3, #6
 8001d86:	d45b      	bmi.n	8001e40 <HAL_RCC_OscConfig+0x4a0>
 8001d88:	6aab      	ldr	r3, [r5, #40]	; 0x28
 8001d8a:	6aa2      	ldr	r2, [r4, #40]	; 0x28
 8001d8c:	f423 737c 	bic.w	r3, r3, #1008	; 0x3f0
 8001d90:	f023 0303 	bic.w	r3, r3, #3
 8001d94:	4313      	orrs	r3, r2
 8001d96:	6ae2      	ldr	r2, [r4, #44]	; 0x2c
 8001d98:	ea43 1302 	orr.w	r3, r3, r2, lsl #4
 8001d9c:	62ab      	str	r3, [r5, #40]	; 0x28
 8001d9e:	6b63      	ldr	r3, [r4, #52]	; 0x34
 8001da0:	6ba2      	ldr	r2, [r4, #56]	; 0x38
 8001da2:	3b01      	subs	r3, #1
 8001da4:	3a01      	subs	r2, #1
 8001da6:	025b      	lsls	r3, r3, #9
 8001da8:	0412      	lsls	r2, r2, #16
 8001daa:	b29b      	uxth	r3, r3
 8001dac:	f402 02fe 	and.w	r2, r2, #8323072	; 0x7f0000
 8001db0:	4313      	orrs	r3, r2
 8001db2:	6b22      	ldr	r2, [r4, #48]	; 0x30
 8001db4:	3a01      	subs	r2, #1
 8001db6:	f3c2 0208 	ubfx	r2, r2, #0, #9
 8001dba:	4313      	orrs	r3, r2
 8001dbc:	6be2      	ldr	r2, [r4, #60]	; 0x3c
 8001dbe:	3a01      	subs	r2, #1
 8001dc0:	0612      	lsls	r2, r2, #24
 8001dc2:	f002 42fe 	and.w	r2, r2, #2130706432	; 0x7f000000
 8001dc6:	4313      	orrs	r3, r2
 8001dc8:	632b      	str	r3, [r5, #48]	; 0x30
 8001dca:	6aeb      	ldr	r3, [r5, #44]	; 0x2c
 8001dcc:	f023 0301 	bic.w	r3, r3, #1
 8001dd0:	62eb      	str	r3, [r5, #44]	; 0x2c
 8001dd2:	6b6b      	ldr	r3, [r5, #52]	; 0x34
 8001dd4:	6ca2      	ldr	r2, [r4, #72]	; 0x48
 8001dd6:	f423 437f 	bic.w	r3, r3, #65280	; 0xff00
 8001dda:	f023 03f8 	bic.w	r3, r3, #248	; 0xf8
 8001dde:	ea43 03c2 	orr.w	r3, r3, r2, lsl #3
 8001de2:	636b      	str	r3, [r5, #52]	; 0x34
 8001de4:	6aeb      	ldr	r3, [r5, #44]	; 0x2c
 8001de6:	6c22      	ldr	r2, [r4, #64]	; 0x40
 8001de8:	f023 030c 	bic.w	r3, r3, #12
 8001dec:	4313      	orrs	r3, r2
 8001dee:	62eb      	str	r3, [r5, #44]	; 0x2c
 8001df0:	6aeb      	ldr	r3, [r5, #44]	; 0x2c
 8001df2:	6c62      	ldr	r2, [r4, #68]	; 0x44
 8001df4:	f023 0302 	bic.w	r3, r3, #2
 8001df8:	4c32      	ldr	r4, [pc, #200]	; (8001ec4 <HAL_RCC_OscConfig+0x524>)
 8001dfa:	4313      	orrs	r3, r2
 8001dfc:	62eb      	str	r3, [r5, #44]	; 0x2c
 8001dfe:	6aeb      	ldr	r3, [r5, #44]	; 0x2c
 8001e00:	f443 3380 	orr.w	r3, r3, #65536	; 0x10000
 8001e04:	62eb      	str	r3, [r5, #44]	; 0x2c
 8001e06:	6aeb      	ldr	r3, [r5, #44]	; 0x2c
 8001e08:	f443 3300 	orr.w	r3, r3, #131072	; 0x20000
 8001e0c:	62eb      	str	r3, [r5, #44]	; 0x2c
 8001e0e:	6aeb      	ldr	r3, [r5, #44]	; 0x2c
 8001e10:	f443 2380 	orr.w	r3, r3, #262144	; 0x40000
 8001e14:	62eb      	str	r3, [r5, #44]	; 0x2c
 8001e16:	6aeb      	ldr	r3, [r5, #44]	; 0x2c
 8001e18:	f043 0301 	orr.w	r3, r3, #1
 8001e1c:	62eb      	str	r3, [r5, #44]	; 0x2c
 8001e1e:	682b      	ldr	r3, [r5, #0]
 8001e20:	f043 7380 	orr.w	r3, r3, #16777216	; 0x1000000
 8001e24:	602b      	str	r3, [r5, #0]
 8001e26:	f7ff f83d 	bl	8000ea4 <HAL_GetTick>
 8001e2a:	4605      	mov	r5, r0
 8001e2c:	6823      	ldr	r3, [r4, #0]
 8001e2e:	019a      	lsls	r2, r3, #6
 8001e30:	f53f ae1b 	bmi.w	8001a6a <HAL_RCC_OscConfig+0xca>
 8001e34:	f7ff f836 	bl	8000ea4 <HAL_GetTick>
 8001e38:	1b40      	subs	r0, r0, r5
 8001e3a:	2802      	cmp	r0, #2
 8001e3c:	d9f6      	bls.n	8001e2c <HAL_RCC_OscConfig+0x48c>
 8001e3e:	e640      	b.n	8001ac2 <HAL_RCC_OscConfig+0x122>
 8001e40:	f7ff f830 	bl	8000ea4 <HAL_GetTick>
 8001e44:	1b80      	subs	r0, r0, r6
 8001e46:	2802      	cmp	r0, #2
 8001e48:	d99b      	bls.n	8001d82 <HAL_RCC_OscConfig+0x3e2>
 8001e4a:	e63a      	b.n	8001ac2 <HAL_RCC_OscConfig+0x122>
 8001e4c:	f7ff f82a 	bl	8000ea4 <HAL_GetTick>
 8001e50:	4604      	mov	r4, r0
 8001e52:	682b      	ldr	r3, [r5, #0]
 8001e54:	019b      	lsls	r3, r3, #6
 8001e56:	f57f ae08 	bpl.w	8001a6a <HAL_RCC_OscConfig+0xca>
 8001e5a:	f7ff f823 	bl	8000ea4 <HAL_GetTick>
 8001e5e:	1b00      	subs	r0, r0, r4
 8001e60:	2802      	cmp	r0, #2
 8001e62:	d9f6      	bls.n	8001e52 <HAL_RCC_OscConfig+0x4b2>
 8001e64:	e62d      	b.n	8001ac2 <HAL_RCC_OscConfig+0x122>
 8001e66:	2801      	cmp	r0, #1
 8001e68:	6aaa      	ldr	r2, [r5, #40]	; 0x28
 8001e6a:	6b2b      	ldr	r3, [r5, #48]	; 0x30
 8001e6c:	f43f ae2a 	beq.w	8001ac4 <HAL_RCC_OscConfig+0x124>
 8001e70:	f002 0103 	and.w	r1, r2, #3
 8001e74:	6aa0      	ldr	r0, [r4, #40]	; 0x28
 8001e76:	4281      	cmp	r1, r0
 8001e78:	f47f ad95 	bne.w	80019a6 <HAL_RCC_OscConfig+0x6>
 8001e7c:	f3c2 1205 	ubfx	r2, r2, #4, #6
 8001e80:	6ae1      	ldr	r1, [r4, #44]	; 0x2c
 8001e82:	428a      	cmp	r2, r1
 8001e84:	f47f ad8f 	bne.w	80019a6 <HAL_RCC_OscConfig+0x6>
 8001e88:	6b22      	ldr	r2, [r4, #48]	; 0x30
 8001e8a:	f3c3 0108 	ubfx	r1, r3, #0, #9
 8001e8e:	3a01      	subs	r2, #1
 8001e90:	4291      	cmp	r1, r2
 8001e92:	f47f ad88 	bne.w	80019a6 <HAL_RCC_OscConfig+0x6>
 8001e96:	6b62      	ldr	r2, [r4, #52]	; 0x34
 8001e98:	f3c3 2146 	ubfx	r1, r3, #9, #7
 8001e9c:	3a01      	subs	r2, #1
 8001e9e:	4291      	cmp	r1, r2
 8001ea0:	f47f ad81 	bne.w	80019a6 <HAL_RCC_OscConfig+0x6>
 8001ea4:	6ba2      	ldr	r2, [r4, #56]	; 0x38
 8001ea6:	f3c3 4106 	ubfx	r1, r3, #16, #7
 8001eaa:	3a01      	subs	r2, #1
 8001eac:	4291      	cmp	r1, r2
 8001eae:	f47f ad7a 	bne.w	80019a6 <HAL_RCC_OscConfig+0x6>
 8001eb2:	6be0      	ldr	r0, [r4, #60]	; 0x3c
 8001eb4:	f3c3 6306 	ubfx	r3, r3, #24, #7
 8001eb8:	3801      	subs	r0, #1
 8001eba:	1a18      	subs	r0, r3, r0
 8001ebc:	bf18      	it	ne
 8001ebe:	2001      	movne	r0, #1
 8001ec0:	e600      	b.n	8001ac4 <HAL_RCC_OscConfig+0x124>
 8001ec2:	bf00      	nop
 8001ec4:	58024400 	.word	0x58024400

08001ec8 <HAL_RCC_GetSysClockFreq>:
 8001ec8:	4b46      	ldr	r3, [pc, #280]	; (8001fe4 <HAL_RCC_GetSysClockFreq+0x11c>)
 8001eca:	691a      	ldr	r2, [r3, #16]
 8001ecc:	f002 0238 	and.w	r2, r2, #56	; 0x38
 8001ed0:	2a10      	cmp	r2, #16
 8001ed2:	b510      	push	{r4, lr}
 8001ed4:	f000 8084 	beq.w	8001fe0 <HAL_RCC_GetSysClockFreq+0x118>
 8001ed8:	2a18      	cmp	r2, #24
 8001eda:	d00c      	beq.n	8001ef6 <HAL_RCC_GetSysClockFreq+0x2e>
 8001edc:	b10a      	cbz	r2, 8001ee2 <HAL_RCC_GetSysClockFreq+0x1a>
 8001ede:	4842      	ldr	r0, [pc, #264]	; (8001fe8 <HAL_RCC_GetSysClockFreq+0x120>)
 8001ee0:	bd10      	pop	{r4, pc}
 8001ee2:	681a      	ldr	r2, [r3, #0]
 8001ee4:	4841      	ldr	r0, [pc, #260]	; (8001fec <HAL_RCC_GetSysClockFreq+0x124>)
 8001ee6:	f012 0f20 	tst.w	r2, #32
 8001eea:	d0f9      	beq.n	8001ee0 <HAL_RCC_GetSysClockFreq+0x18>
 8001eec:	681b      	ldr	r3, [r3, #0]
 8001eee:	f3c3 03c1 	ubfx	r3, r3, #3, #2
 8001ef2:	40d8      	lsrs	r0, r3
 8001ef4:	e7f4      	b.n	8001ee0 <HAL_RCC_GetSysClockFreq+0x18>
 8001ef6:	6a99      	ldr	r1, [r3, #40]	; 0x28
 8001ef8:	6a98      	ldr	r0, [r3, #40]	; 0x28
 8001efa:	6ada      	ldr	r2, [r3, #44]	; 0x2c
 8001efc:	f3c0 1005 	ubfx	r0, r0, #4, #6
 8001f00:	6b5c      	ldr	r4, [r3, #52]	; 0x34
 8001f02:	2800      	cmp	r0, #0
 8001f04:	d0ec      	beq.n	8001ee0 <HAL_RCC_GetSysClockFreq+0x18>
 8001f06:	ee07 0a90 	vmov	s15, r0
 8001f0a:	f002 0201 	and.w	r2, r2, #1
 8001f0e:	f3c4 00cc 	ubfx	r0, r4, #3, #13
 8001f12:	eeb7 6a00 	vmov.f32	s12, #112	; 0x3f800000  1.0
 8001f16:	eef8 6ae7 	vcvt.f32.s32	s13, s15
 8001f1a:	4342      	muls	r2, r0
 8001f1c:	ee07 2a90 	vmov	s15, r2
 8001f20:	f001 0203 	and.w	r2, r1, #3
 8001f24:	2a01      	cmp	r2, #1
 8001f26:	eefa 7ae9 	vcvt.f32.s32	s15, s15, #13
 8001f2a:	d002      	beq.n	8001f32 <HAL_RCC_GetSysClockFreq+0x6a>
 8001f2c:	d30f      	bcc.n	8001f4e <HAL_RCC_GetSysClockFreq+0x86>
 8001f2e:	2a02      	cmp	r2, #2
 8001f30:	d048      	beq.n	8001fc4 <HAL_RCC_GetSysClockFreq+0xfc>
 8001f32:	6b1b      	ldr	r3, [r3, #48]	; 0x30
 8001f34:	f3c3 0308 	ubfx	r3, r3, #0, #9
 8001f38:	ee07 3a10 	vmov	s14, r3
 8001f3c:	eeb8 7ac7 	vcvt.f32.s32	s14, s14
 8001f40:	ee77 7a27 	vadd.f32	s15, s14, s15
 8001f44:	ee77 7a86 	vadd.f32	s15, s15, s12
 8001f48:	ed9f 6a29 	vldr	s12, [pc, #164]	; 8001ff0 <HAL_RCC_GetSysClockFreq+0x128>
 8001f4c:	e037      	b.n	8001fbe <HAL_RCC_GetSysClockFreq+0xf6>
 8001f4e:	681a      	ldr	r2, [r3, #0]
 8001f50:	0692      	lsls	r2, r2, #26
 8001f52:	d527      	bpl.n	8001fa4 <HAL_RCC_GetSysClockFreq+0xdc>
 8001f54:	6819      	ldr	r1, [r3, #0]
 8001f56:	4a25      	ldr	r2, [pc, #148]	; (8001fec <HAL_RCC_GetSysClockFreq+0x124>)
 8001f58:	f3c1 01c1 	ubfx	r1, r1, #3, #2
 8001f5c:	6b1b      	ldr	r3, [r3, #48]	; 0x30
 8001f5e:	40ca      	lsrs	r2, r1
 8001f60:	f3c3 0308 	ubfx	r3, r3, #0, #9
 8001f64:	ee07 2a10 	vmov	s14, r2
 8001f68:	eef8 5ac7 	vcvt.f32.s32	s11, s14
 8001f6c:	ee85 7aa6 	vdiv.f32	s14, s11, s13
 8001f70:	ee06 3a90 	vmov	s13, r3
 8001f74:	eef8 6ae6 	vcvt.f32.s32	s13, s13
 8001f78:	ee76 7aa7 	vadd.f32	s15, s13, s15
 8001f7c:	ee77 7a86 	vadd.f32	s15, s15, s12
 8001f80:	4b18      	ldr	r3, [pc, #96]	; (8001fe4 <HAL_RCC_GetSysClockFreq+0x11c>)
 8001f82:	ee67 7a87 	vmul.f32	s15, s15, s14
 8001f86:	6b1b      	ldr	r3, [r3, #48]	; 0x30
 8001f88:	f3c3 2346 	ubfx	r3, r3, #9, #7
 8001f8c:	3301      	adds	r3, #1
 8001f8e:	ee07 3a10 	vmov	s14, r3
 8001f92:	eef8 6ac7 	vcvt.f32.s32	s13, s14
 8001f96:	ee87 7aa6 	vdiv.f32	s14, s15, s13
 8001f9a:	eefc 7ac7 	vcvt.u32.f32	s15, s14
 8001f9e:	ee17 0a90 	vmov	r0, s15
 8001fa2:	e79d      	b.n	8001ee0 <HAL_RCC_GetSysClockFreq+0x18>
 8001fa4:	6b1b      	ldr	r3, [r3, #48]	; 0x30
 8001fa6:	f3c3 0308 	ubfx	r3, r3, #0, #9
 8001faa:	ee07 3a10 	vmov	s14, r3
 8001fae:	eeb8 7ac7 	vcvt.f32.s32	s14, s14
 8001fb2:	ee77 7a27 	vadd.f32	s15, s14, s15
 8001fb6:	ee77 7a86 	vadd.f32	s15, s15, s12
 8001fba:	ed9f 6a0e 	vldr	s12, [pc, #56]	; 8001ff4 <HAL_RCC_GetSysClockFreq+0x12c>
 8001fbe:	ee86 7a26 	vdiv.f32	s14, s12, s13
 8001fc2:	e7dd      	b.n	8001f80 <HAL_RCC_GetSysClockFreq+0xb8>
 8001fc4:	6b1b      	ldr	r3, [r3, #48]	; 0x30
 8001fc6:	f3c3 0308 	ubfx	r3, r3, #0, #9
 8001fca:	ee07 3a10 	vmov	s14, r3
 8001fce:	eeb8 7ac7 	vcvt.f32.s32	s14, s14
 8001fd2:	ee77 7a27 	vadd.f32	s15, s14, s15
 8001fd6:	ee77 7a86 	vadd.f32	s15, s15, s12
 8001fda:	ed9f 6a07 	vldr	s12, [pc, #28]	; 8001ff8 <HAL_RCC_GetSysClockFreq+0x130>
 8001fde:	e7ee      	b.n	8001fbe <HAL_RCC_GetSysClockFreq+0xf6>
 8001fe0:	4806      	ldr	r0, [pc, #24]	; (8001ffc <HAL_RCC_GetSysClockFreq+0x134>)
 8001fe2:	e77d      	b.n	8001ee0 <HAL_RCC_GetSysClockFreq+0x18>
 8001fe4:	58024400 	.word	0x58024400
 8001fe8:	003d0900 	.word	0x003d0900
 8001fec:	03d09000 	.word	0x03d09000
 8001ff0:	4a742400 	.word	0x4a742400
 8001ff4:	4c742400 	.word	0x4c742400
 8001ff8:	4af42400 	.word	0x4af42400
 8001ffc:	007a1200 	.word	0x007a1200

08002000 <HAL_RCC_ClockConfig>:
 8002000:	e92d 41f0 	stmdb	sp!, {r4, r5, r6, r7, r8, lr}
 8002004:	460d      	mov	r5, r1
 8002006:	4604      	mov	r4, r0
 8002008:	b910      	cbnz	r0, 8002010 <HAL_RCC_ClockConfig+0x10>
 800200a:	2001      	movs	r0, #1
 800200c:	e8bd 81f0 	ldmia.w	sp!, {r4, r5, r6, r7, r8, pc}
 8002010:	4a88      	ldr	r2, [pc, #544]	; (8002234 <HAL_RCC_ClockConfig+0x234>)
 8002012:	6813      	ldr	r3, [r2, #0]
 8002014:	f003 030f 	and.w	r3, r3, #15
 8002018:	428b      	cmp	r3, r1
 800201a:	f0c0 8093 	bcc.w	8002144 <HAL_RCC_ClockConfig+0x144>
 800201e:	6823      	ldr	r3, [r4, #0]
 8002020:	075f      	lsls	r7, r3, #29
 8002022:	f100 809b 	bmi.w	800215c <HAL_RCC_ClockConfig+0x15c>
 8002026:	071e      	lsls	r6, r3, #28
 8002028:	d50b      	bpl.n	8002042 <HAL_RCC_ClockConfig+0x42>
 800202a:	4983      	ldr	r1, [pc, #524]	; (8002238 <HAL_RCC_ClockConfig+0x238>)
 800202c:	6966      	ldr	r6, [r4, #20]
 800202e:	69c8      	ldr	r0, [r1, #28]
 8002030:	f000 0070 	and.w	r0, r0, #112	; 0x70
 8002034:	4286      	cmp	r6, r0
 8002036:	d904      	bls.n	8002042 <HAL_RCC_ClockConfig+0x42>
 8002038:	69ca      	ldr	r2, [r1, #28]
 800203a:	f022 0270 	bic.w	r2, r2, #112	; 0x70
 800203e:	4332      	orrs	r2, r6
 8002040:	61ca      	str	r2, [r1, #28]
 8002042:	06d8      	lsls	r0, r3, #27
 8002044:	d50b      	bpl.n	800205e <HAL_RCC_ClockConfig+0x5e>
 8002046:	497c      	ldr	r1, [pc, #496]	; (8002238 <HAL_RCC_ClockConfig+0x238>)
 8002048:	69a6      	ldr	r6, [r4, #24]
 800204a:	69c8      	ldr	r0, [r1, #28]
 800204c:	f400 60e0 	and.w	r0, r0, #1792	; 0x700
 8002050:	4286      	cmp	r6, r0
 8002052:	d904      	bls.n	800205e <HAL_RCC_ClockConfig+0x5e>
 8002054:	69ca      	ldr	r2, [r1, #28]
 8002056:	f422 62e0 	bic.w	r2, r2, #1792	; 0x700
 800205a:	4332      	orrs	r2, r6
 800205c:	61ca      	str	r2, [r1, #28]
 800205e:	0699      	lsls	r1, r3, #26
 8002060:	d50b      	bpl.n	800207a <HAL_RCC_ClockConfig+0x7a>
 8002062:	4975      	ldr	r1, [pc, #468]	; (8002238 <HAL_RCC_ClockConfig+0x238>)
 8002064:	69e6      	ldr	r6, [r4, #28]
 8002066:	6a08      	ldr	r0, [r1, #32]
 8002068:	f000 0070 	and.w	r0, r0, #112	; 0x70
 800206c:	4286      	cmp	r6, r0
 800206e:	d904      	bls.n	800207a <HAL_RCC_ClockConfig+0x7a>
 8002070:	6a0a      	ldr	r2, [r1, #32]
 8002072:	f022 0270 	bic.w	r2, r2, #112	; 0x70
 8002076:	4332      	orrs	r2, r6
 8002078:	620a      	str	r2, [r1, #32]
 800207a:	079a      	lsls	r2, r3, #30
 800207c:	d50b      	bpl.n	8002096 <HAL_RCC_ClockConfig+0x96>
 800207e:	496e      	ldr	r1, [pc, #440]	; (8002238 <HAL_RCC_ClockConfig+0x238>)
 8002080:	68e6      	ldr	r6, [r4, #12]
 8002082:	6988      	ldr	r0, [r1, #24]
 8002084:	f000 000f 	and.w	r0, r0, #15
 8002088:	4286      	cmp	r6, r0
 800208a:	d904      	bls.n	8002096 <HAL_RCC_ClockConfig+0x96>
 800208c:	698a      	ldr	r2, [r1, #24]
 800208e:	f022 020f 	bic.w	r2, r2, #15
 8002092:	4332      	orrs	r2, r6
 8002094:	618a      	str	r2, [r1, #24]
 8002096:	07df      	lsls	r7, r3, #31
 8002098:	d46e      	bmi.n	8002178 <HAL_RCC_ClockConfig+0x178>
 800209a:	6823      	ldr	r3, [r4, #0]
 800209c:	079e      	lsls	r6, r3, #30
 800209e:	f100 80a1 	bmi.w	80021e4 <HAL_RCC_ClockConfig+0x1e4>
 80020a2:	4964      	ldr	r1, [pc, #400]	; (8002234 <HAL_RCC_ClockConfig+0x234>)
 80020a4:	680a      	ldr	r2, [r1, #0]
 80020a6:	f002 020f 	and.w	r2, r2, #15
 80020aa:	42aa      	cmp	r2, r5
 80020ac:	f200 80a8 	bhi.w	8002200 <HAL_RCC_ClockConfig+0x200>
 80020b0:	0758      	lsls	r0, r3, #29
 80020b2:	f100 80b1 	bmi.w	8002218 <HAL_RCC_ClockConfig+0x218>
 80020b6:	0719      	lsls	r1, r3, #28
 80020b8:	d50b      	bpl.n	80020d2 <HAL_RCC_ClockConfig+0xd2>
 80020ba:	495f      	ldr	r1, [pc, #380]	; (8002238 <HAL_RCC_ClockConfig+0x238>)
 80020bc:	6965      	ldr	r5, [r4, #20]
 80020be:	69c8      	ldr	r0, [r1, #28]
 80020c0:	f000 0070 	and.w	r0, r0, #112	; 0x70
 80020c4:	4285      	cmp	r5, r0
 80020c6:	d204      	bcs.n	80020d2 <HAL_RCC_ClockConfig+0xd2>
 80020c8:	69ca      	ldr	r2, [r1, #28]
 80020ca:	f022 0270 	bic.w	r2, r2, #112	; 0x70
 80020ce:	432a      	orrs	r2, r5
 80020d0:	61ca      	str	r2, [r1, #28]
 80020d2:	06da      	lsls	r2, r3, #27
 80020d4:	d50b      	bpl.n	80020ee <HAL_RCC_ClockConfig+0xee>
 80020d6:	4958      	ldr	r1, [pc, #352]	; (8002238 <HAL_RCC_ClockConfig+0x238>)
 80020d8:	69a5      	ldr	r5, [r4, #24]
 80020da:	69c8      	ldr	r0, [r1, #28]
 80020dc:	f400 60e0 	and.w	r0, r0, #1792	; 0x700
 80020e0:	4285      	cmp	r5, r0
 80020e2:	d204      	bcs.n	80020ee <HAL_RCC_ClockConfig+0xee>
 80020e4:	69ca      	ldr	r2, [r1, #28]
 80020e6:	f422 62e0 	bic.w	r2, r2, #1792	; 0x700
 80020ea:	432a      	orrs	r2, r5
 80020ec:	61ca      	str	r2, [r1, #28]
 80020ee:	069b      	lsls	r3, r3, #26
 80020f0:	d50b      	bpl.n	800210a <HAL_RCC_ClockConfig+0x10a>
 80020f2:	4a51      	ldr	r2, [pc, #324]	; (8002238 <HAL_RCC_ClockConfig+0x238>)
 80020f4:	69e0      	ldr	r0, [r4, #28]
 80020f6:	6a11      	ldr	r1, [r2, #32]
 80020f8:	f001 0170 	and.w	r1, r1, #112	; 0x70
 80020fc:	4288      	cmp	r0, r1
 80020fe:	d204      	bcs.n	800210a <HAL_RCC_ClockConfig+0x10a>
 8002100:	6a13      	ldr	r3, [r2, #32]
 8002102:	f023 0370 	bic.w	r3, r3, #112	; 0x70
 8002106:	4303      	orrs	r3, r0
 8002108:	6213      	str	r3, [r2, #32]
 800210a:	f7ff fedd 	bl	8001ec8 <HAL_RCC_GetSysClockFreq>
 800210e:	494a      	ldr	r1, [pc, #296]	; (8002238 <HAL_RCC_ClockConfig+0x238>)
 8002110:	4a4a      	ldr	r2, [pc, #296]	; (800223c <HAL_RCC_ClockConfig+0x23c>)
 8002112:	698b      	ldr	r3, [r1, #24]
 8002114:	f3c3 2303 	ubfx	r3, r3, #8, #4
 8002118:	5cd3      	ldrb	r3, [r2, r3]
 800211a:	f003 031f 	and.w	r3, r3, #31
 800211e:	40d8      	lsrs	r0, r3
 8002120:	698b      	ldr	r3, [r1, #24]
 8002122:	f003 030f 	and.w	r3, r3, #15
 8002126:	5cd3      	ldrb	r3, [r2, r3]
 8002128:	4a45      	ldr	r2, [pc, #276]	; (8002240 <HAL_RCC_ClockConfig+0x240>)
 800212a:	f003 031f 	and.w	r3, r3, #31
 800212e:	fa20 f303 	lsr.w	r3, r0, r3
 8002132:	6013      	str	r3, [r2, #0]
 8002134:	4b43      	ldr	r3, [pc, #268]	; (8002244 <HAL_RCC_ClockConfig+0x244>)
 8002136:	6018      	str	r0, [r3, #0]
 8002138:	4b43      	ldr	r3, [pc, #268]	; (8002248 <HAL_RCC_ClockConfig+0x248>)
 800213a:	e8bd 41f0 	ldmia.w	sp!, {r4, r5, r6, r7, r8, lr}
 800213e:	6818      	ldr	r0, [r3, #0]
 8002140:	f7fe be50 	b.w	8000de4 <HAL_InitTick>
 8002144:	6813      	ldr	r3, [r2, #0]
 8002146:	f023 030f 	bic.w	r3, r3, #15
 800214a:	430b      	orrs	r3, r1
 800214c:	6013      	str	r3, [r2, #0]
 800214e:	6813      	ldr	r3, [r2, #0]
 8002150:	f003 030f 	and.w	r3, r3, #15
 8002154:	428b      	cmp	r3, r1
 8002156:	f47f af58 	bne.w	800200a <HAL_RCC_ClockConfig+0xa>
 800215a:	e760      	b.n	800201e <HAL_RCC_ClockConfig+0x1e>
 800215c:	4936      	ldr	r1, [pc, #216]	; (8002238 <HAL_RCC_ClockConfig+0x238>)
 800215e:	6926      	ldr	r6, [r4, #16]
 8002160:	6988      	ldr	r0, [r1, #24]
 8002162:	f000 0070 	and.w	r0, r0, #112	; 0x70
 8002166:	4286      	cmp	r6, r0
 8002168:	f67f af5d 	bls.w	8002026 <HAL_RCC_ClockConfig+0x26>
 800216c:	698a      	ldr	r2, [r1, #24]
 800216e:	f022 0270 	bic.w	r2, r2, #112	; 0x70
 8002172:	4332      	orrs	r2, r6
 8002174:	618a      	str	r2, [r1, #24]
 8002176:	e756      	b.n	8002026 <HAL_RCC_ClockConfig+0x26>
 8002178:	4b2f      	ldr	r3, [pc, #188]	; (8002238 <HAL_RCC_ClockConfig+0x238>)
 800217a:	68a1      	ldr	r1, [r4, #8]
 800217c:	699a      	ldr	r2, [r3, #24]
 800217e:	f422 6270 	bic.w	r2, r2, #3840	; 0xf00
 8002182:	430a      	orrs	r2, r1
 8002184:	619a      	str	r2, [r3, #24]
 8002186:	6861      	ldr	r1, [r4, #4]
 8002188:	681a      	ldr	r2, [r3, #0]
 800218a:	2902      	cmp	r1, #2
 800218c:	d11d      	bne.n	80021ca <HAL_RCC_ClockConfig+0x1ca>
 800218e:	f412 3f00 	tst.w	r2, #131072	; 0x20000
 8002192:	f43f af3a 	beq.w	800200a <HAL_RCC_ClockConfig+0xa>
 8002196:	691a      	ldr	r2, [r3, #16]
 8002198:	f241 3888 	movw	r8, #5000	; 0x1388
 800219c:	4e26      	ldr	r6, [pc, #152]	; (8002238 <HAL_RCC_ClockConfig+0x238>)
 800219e:	f022 0207 	bic.w	r2, r2, #7
 80021a2:	430a      	orrs	r2, r1
 80021a4:	611a      	str	r2, [r3, #16]
 80021a6:	f7fe fe7d 	bl	8000ea4 <HAL_GetTick>
 80021aa:	4607      	mov	r7, r0
 80021ac:	6933      	ldr	r3, [r6, #16]
 80021ae:	6862      	ldr	r2, [r4, #4]
 80021b0:	f003 0338 	and.w	r3, r3, #56	; 0x38
 80021b4:	ebb3 0fc2 	cmp.w	r3, r2, lsl #3
 80021b8:	f43f af6f 	beq.w	800209a <HAL_RCC_ClockConfig+0x9a>
 80021bc:	f7fe fe72 	bl	8000ea4 <HAL_GetTick>
 80021c0:	1bc0      	subs	r0, r0, r7
 80021c2:	4540      	cmp	r0, r8
 80021c4:	d9f2      	bls.n	80021ac <HAL_RCC_ClockConfig+0x1ac>
 80021c6:	2003      	movs	r0, #3
 80021c8:	e720      	b.n	800200c <HAL_RCC_ClockConfig+0xc>
 80021ca:	2903      	cmp	r1, #3
 80021cc:	d102      	bne.n	80021d4 <HAL_RCC_ClockConfig+0x1d4>
 80021ce:	f012 7f00 	tst.w	r2, #33554432	; 0x2000000
 80021d2:	e7de      	b.n	8002192 <HAL_RCC_ClockConfig+0x192>
 80021d4:	2901      	cmp	r1, #1
 80021d6:	d102      	bne.n	80021de <HAL_RCC_ClockConfig+0x1de>
 80021d8:	f412 7f80 	tst.w	r2, #256	; 0x100
 80021dc:	e7d9      	b.n	8002192 <HAL_RCC_ClockConfig+0x192>
 80021de:	f012 0f04 	tst.w	r2, #4
 80021e2:	e7d6      	b.n	8002192 <HAL_RCC_ClockConfig+0x192>
 80021e4:	4914      	ldr	r1, [pc, #80]	; (8002238 <HAL_RCC_ClockConfig+0x238>)
 80021e6:	68e6      	ldr	r6, [r4, #12]
 80021e8:	6988      	ldr	r0, [r1, #24]
 80021ea:	f000 000f 	and.w	r0, r0, #15
 80021ee:	4286      	cmp	r6, r0
 80021f0:	f4bf af57 	bcs.w	80020a2 <HAL_RCC_ClockConfig+0xa2>
 80021f4:	698a      	ldr	r2, [r1, #24]
 80021f6:	f022 020f 	bic.w	r2, r2, #15
 80021fa:	4332      	orrs	r2, r6
 80021fc:	618a      	str	r2, [r1, #24]
 80021fe:	e750      	b.n	80020a2 <HAL_RCC_ClockConfig+0xa2>
 8002200:	680a      	ldr	r2, [r1, #0]
 8002202:	f022 020f 	bic.w	r2, r2, #15
 8002206:	432a      	orrs	r2, r5
 8002208:	600a      	str	r2, [r1, #0]
 800220a:	680a      	ldr	r2, [r1, #0]
 800220c:	f002 020f 	and.w	r2, r2, #15
 8002210:	42aa      	cmp	r2, r5
 8002212:	f47f aefa 	bne.w	800200a <HAL_RCC_ClockConfig+0xa>
 8002216:	e74b      	b.n	80020b0 <HAL_RCC_ClockConfig+0xb0>
 8002218:	4907      	ldr	r1, [pc, #28]	; (8002238 <HAL_RCC_ClockConfig+0x238>)
 800221a:	6925      	ldr	r5, [r4, #16]
 800221c:	6988      	ldr	r0, [r1, #24]
 800221e:	f000 0070 	and.w	r0, r0, #112	; 0x70
 8002222:	4285      	cmp	r5, r0
 8002224:	f4bf af47 	bcs.w	80020b6 <HAL_RCC_ClockConfig+0xb6>
 8002228:	698a      	ldr	r2, [r1, #24]
 800222a:	f022 0270 	bic.w	r2, r2, #112	; 0x70
 800222e:	432a      	orrs	r2, r5
 8002230:	618a      	str	r2, [r1, #24]
 8002232:	e740      	b.n	80020b6 <HAL_RCC_ClockConfig+0xb6>
 8002234:	52002000 	.word	0x52002000
 8002238:	58024400 	.word	0x58024400
 800223c:	08004a7c 	.word	0x08004a7c
 8002240:	24000004 	.word	0x24000004
 8002244:	24000000 	.word	0x24000000
 8002248:	2400000c 	.word	0x2400000c

0800224c <HAL_RCC_GetHCLKFreq>:
 800224c:	b508      	push	{r3, lr}
 800224e:	f7ff fe3b 	bl	8001ec8 <HAL_RCC_GetSysClockFreq>
 8002252:	4a0b      	ldr	r2, [pc, #44]	; (8002280 <HAL_RCC_GetHCLKFreq+0x34>)
 8002254:	490b      	ldr	r1, [pc, #44]	; (8002284 <HAL_RCC_GetHCLKFreq+0x38>)
 8002256:	6993      	ldr	r3, [r2, #24]
 8002258:	6992      	ldr	r2, [r2, #24]
 800225a:	f3c3 2303 	ubfx	r3, r3, #8, #4
 800225e:	f002 020f 	and.w	r2, r2, #15
 8002262:	5ccb      	ldrb	r3, [r1, r3]
 8002264:	f003 031f 	and.w	r3, r3, #31
 8002268:	fa20 f303 	lsr.w	r3, r0, r3
 800226c:	5c88      	ldrb	r0, [r1, r2]
 800226e:	4a06      	ldr	r2, [pc, #24]	; (8002288 <HAL_RCC_GetHCLKFreq+0x3c>)
 8002270:	f000 001f 	and.w	r0, r0, #31
 8002274:	fa23 f000 	lsr.w	r0, r3, r0
 8002278:	6010      	str	r0, [r2, #0]
 800227a:	4a04      	ldr	r2, [pc, #16]	; (800228c <HAL_RCC_GetHCLKFreq+0x40>)
 800227c:	6013      	str	r3, [r2, #0]
 800227e:	bd08      	pop	{r3, pc}
 8002280:	58024400 	.word	0x58024400
 8002284:	08004a7c 	.word	0x08004a7c
 8002288:	24000004 	.word	0x24000004
 800228c:	24000000 	.word	0x24000000

08002290 <HAL_RCC_GetPCLK1Freq>:
 8002290:	b508      	push	{r3, lr}
 8002292:	f7ff ffdb 	bl	800224c <HAL_RCC_GetHCLKFreq>
 8002296:	4b05      	ldr	r3, [pc, #20]	; (80022ac <HAL_RCC_GetPCLK1Freq+0x1c>)
 8002298:	4a05      	ldr	r2, [pc, #20]	; (80022b0 <HAL_RCC_GetPCLK1Freq+0x20>)
 800229a:	69db      	ldr	r3, [r3, #28]
 800229c:	f3c3 1302 	ubfx	r3, r3, #4, #3
 80022a0:	5cd3      	ldrb	r3, [r2, r3]
 80022a2:	f003 031f 	and.w	r3, r3, #31
 80022a6:	40d8      	lsrs	r0, r3
 80022a8:	bd08      	pop	{r3, pc}
 80022aa:	bf00      	nop
 80022ac:	58024400 	.word	0x58024400
 80022b0:	08004a7c 	.word	0x08004a7c

080022b4 <HAL_RCC_GetPCLK2Freq>:
 80022b4:	b508      	push	{r3, lr}
 80022b6:	f7ff ffc9 	bl	800224c <HAL_RCC_GetHCLKFreq>
 80022ba:	4b05      	ldr	r3, [pc, #20]	; (80022d0 <HAL_RCC_GetPCLK2Freq+0x1c>)
 80022bc:	4a05      	ldr	r2, [pc, #20]	; (80022d4 <HAL_RCC_GetPCLK2Freq+0x20>)
 80022be:	69db      	ldr	r3, [r3, #28]
 80022c0:	f3c3 2302 	ubfx	r3, r3, #8, #3
 80022c4:	5cd3      	ldrb	r3, [r2, r3]
 80022c6:	f003 031f 	and.w	r3, r3, #31
 80022ca:	40d8      	lsrs	r0, r3
 80022cc:	bd08      	pop	{r3, pc}
 80022ce:	bf00      	nop
 80022d0:	58024400 	.word	0x58024400
 80022d4:	08004a7c 	.word	0x08004a7c

080022d8 <RCCEx_PLL2_Config>:
 80022d8:	b5f8      	push	{r3, r4, r5, r6, r7, lr}
 80022da:	4c3a      	ldr	r4, [pc, #232]	; (80023c4 <RCCEx_PLL2_Config+0xec>)
 80022dc:	4606      	mov	r6, r0
 80022de:	460d      	mov	r5, r1
 80022e0:	6aa3      	ldr	r3, [r4, #40]	; 0x28
 80022e2:	f003 0303 	and.w	r3, r3, #3
 80022e6:	2b03      	cmp	r3, #3
 80022e8:	d069      	beq.n	80023be <RCCEx_PLL2_Config+0xe6>
 80022ea:	6823      	ldr	r3, [r4, #0]
 80022ec:	f023 6380 	bic.w	r3, r3, #67108864	; 0x4000000
 80022f0:	6023      	str	r3, [r4, #0]
 80022f2:	f7fe fdd7 	bl	8000ea4 <HAL_GetTick>
 80022f6:	4607      	mov	r7, r0
 80022f8:	6823      	ldr	r3, [r4, #0]
 80022fa:	011a      	lsls	r2, r3, #4
 80022fc:	d44b      	bmi.n	8002396 <RCCEx_PLL2_Config+0xbe>
 80022fe:	6aa3      	ldr	r3, [r4, #40]	; 0x28
 8002300:	6832      	ldr	r2, [r6, #0]
 8002302:	f423 337c 	bic.w	r3, r3, #258048	; 0x3f000
 8002306:	ea43 3302 	orr.w	r3, r3, r2, lsl #12
 800230a:	62a3      	str	r3, [r4, #40]	; 0x28
 800230c:	68b3      	ldr	r3, [r6, #8]
 800230e:	68f2      	ldr	r2, [r6, #12]
 8002310:	3b01      	subs	r3, #1
 8002312:	3a01      	subs	r2, #1
 8002314:	025b      	lsls	r3, r3, #9
 8002316:	0412      	lsls	r2, r2, #16
 8002318:	b29b      	uxth	r3, r3
 800231a:	f402 02fe 	and.w	r2, r2, #8323072	; 0x7f0000
 800231e:	4313      	orrs	r3, r2
 8002320:	6872      	ldr	r2, [r6, #4]
 8002322:	3a01      	subs	r2, #1
 8002324:	f3c2 0208 	ubfx	r2, r2, #0, #9
 8002328:	4313      	orrs	r3, r2
 800232a:	6932      	ldr	r2, [r6, #16]
 800232c:	3a01      	subs	r2, #1
 800232e:	0612      	lsls	r2, r2, #24
 8002330:	f002 42fe 	and.w	r2, r2, #2130706432	; 0x7f000000
 8002334:	4313      	orrs	r3, r2
 8002336:	63a3      	str	r3, [r4, #56]	; 0x38
 8002338:	6ae3      	ldr	r3, [r4, #44]	; 0x2c
 800233a:	6972      	ldr	r2, [r6, #20]
 800233c:	f023 03c0 	bic.w	r3, r3, #192	; 0xc0
 8002340:	4313      	orrs	r3, r2
 8002342:	62e3      	str	r3, [r4, #44]	; 0x2c
 8002344:	6ae3      	ldr	r3, [r4, #44]	; 0x2c
 8002346:	69b2      	ldr	r2, [r6, #24]
 8002348:	f023 0320 	bic.w	r3, r3, #32
 800234c:	4313      	orrs	r3, r2
 800234e:	62e3      	str	r3, [r4, #44]	; 0x2c
 8002350:	6ae3      	ldr	r3, [r4, #44]	; 0x2c
 8002352:	f023 0310 	bic.w	r3, r3, #16
 8002356:	62e3      	str	r3, [r4, #44]	; 0x2c
 8002358:	6be3      	ldr	r3, [r4, #60]	; 0x3c
 800235a:	69f2      	ldr	r2, [r6, #28]
 800235c:	f423 437f 	bic.w	r3, r3, #65280	; 0xff00
 8002360:	f023 03f8 	bic.w	r3, r3, #248	; 0xf8
 8002364:	ea43 03c2 	orr.w	r3, r3, r2, lsl #3
 8002368:	63e3      	str	r3, [r4, #60]	; 0x3c
 800236a:	6ae3      	ldr	r3, [r4, #44]	; 0x2c
 800236c:	f043 0310 	orr.w	r3, r3, #16
 8002370:	62e3      	str	r3, [r4, #44]	; 0x2c
 8002372:	6ae3      	ldr	r3, [r4, #44]	; 0x2c
 8002374:	b9b5      	cbnz	r5, 80023a4 <RCCEx_PLL2_Config+0xcc>
 8002376:	f443 2300 	orr.w	r3, r3, #524288	; 0x80000
 800237a:	62e3      	str	r3, [r4, #44]	; 0x2c
 800237c:	4c11      	ldr	r4, [pc, #68]	; (80023c4 <RCCEx_PLL2_Config+0xec>)
 800237e:	6823      	ldr	r3, [r4, #0]
 8002380:	f043 6380 	orr.w	r3, r3, #67108864	; 0x4000000
 8002384:	6023      	str	r3, [r4, #0]
 8002386:	f7fe fd8d 	bl	8000ea4 <HAL_GetTick>
 800238a:	4605      	mov	r5, r0
 800238c:	6823      	ldr	r3, [r4, #0]
 800238e:	011b      	lsls	r3, r3, #4
 8002390:	d50f      	bpl.n	80023b2 <RCCEx_PLL2_Config+0xda>
 8002392:	2000      	movs	r0, #0
 8002394:	e005      	b.n	80023a2 <RCCEx_PLL2_Config+0xca>
 8002396:	f7fe fd85 	bl	8000ea4 <HAL_GetTick>
 800239a:	1bc0      	subs	r0, r0, r7
 800239c:	2802      	cmp	r0, #2
 800239e:	d9ab      	bls.n	80022f8 <RCCEx_PLL2_Config+0x20>
 80023a0:	2003      	movs	r0, #3
 80023a2:	bdf8      	pop	{r3, r4, r5, r6, r7, pc}
 80023a4:	2d01      	cmp	r5, #1
 80023a6:	bf0c      	ite	eq
 80023a8:	f443 1380 	orreq.w	r3, r3, #1048576	; 0x100000
 80023ac:	f443 1300 	orrne.w	r3, r3, #2097152	; 0x200000
 80023b0:	e7e3      	b.n	800237a <RCCEx_PLL2_Config+0xa2>
 80023b2:	f7fe fd77 	bl	8000ea4 <HAL_GetTick>
 80023b6:	1b40      	subs	r0, r0, r5
 80023b8:	2802      	cmp	r0, #2
 80023ba:	d9e7      	bls.n	800238c <RCCEx_PLL2_Config+0xb4>
 80023bc:	e7f0      	b.n	80023a0 <RCCEx_PLL2_Config+0xc8>
 80023be:	2001      	movs	r0, #1
 80023c0:	e7ef      	b.n	80023a2 <RCCEx_PLL2_Config+0xca>
 80023c2:	bf00      	nop
 80023c4:	58024400 	.word	0x58024400

080023c8 <RCCEx_PLL3_Config>:
 80023c8:	b5f8      	push	{r3, r4, r5, r6, r7, lr}
 80023ca:	4c3a      	ldr	r4, [pc, #232]	; (80024b4 <RCCEx_PLL3_Config+0xec>)
 80023cc:	4606      	mov	r6, r0
 80023ce:	460d      	mov	r5, r1
 80023d0:	6aa3      	ldr	r3, [r4, #40]	; 0x28
 80023d2:	f003 0303 	and.w	r3, r3, #3
 80023d6:	2b03      	cmp	r3, #3
 80023d8:	d069      	beq.n	80024ae <RCCEx_PLL3_Config+0xe6>
 80023da:	6823      	ldr	r3, [r4, #0]
 80023dc:	f023 5380 	bic.w	r3, r3, #268435456	; 0x10000000
 80023e0:	6023      	str	r3, [r4, #0]
 80023e2:	f7fe fd5f 	bl	8000ea4 <HAL_GetTick>
 80023e6:	4607      	mov	r7, r0
 80023e8:	6823      	ldr	r3, [r4, #0]
 80023ea:	009a      	lsls	r2, r3, #2
 80023ec:	d44b      	bmi.n	8002486 <RCCEx_PLL3_Config+0xbe>
 80023ee:	6aa3      	ldr	r3, [r4, #40]	; 0x28
 80023f0:	6832      	ldr	r2, [r6, #0]
 80023f2:	f023 737c 	bic.w	r3, r3, #66060288	; 0x3f00000
 80023f6:	ea43 5302 	orr.w	r3, r3, r2, lsl #20
 80023fa:	62a3      	str	r3, [r4, #40]	; 0x28
 80023fc:	68b3      	ldr	r3, [r6, #8]
 80023fe:	68f2      	ldr	r2, [r6, #12]
 8002400:	3b01      	subs	r3, #1
 8002402:	3a01      	subs	r2, #1
 8002404:	025b      	lsls	r3, r3, #9
 8002406:	0412      	lsls	r2, r2, #16
 8002408:	b29b      	uxth	r3, r3
 800240a:	f402 02fe 	and.w	r2, r2, #8323072	; 0x7f0000
 800240e:	4313      	orrs	r3, r2
 8002410:	6872      	ldr	r2, [r6, #4]
 8002412:	3a01      	subs	r2, #1
 8002414:	f3c2 0208 	ubfx	r2, r2, #0, #9
 8002418:	4313      	orrs	r3, r2
 800241a:	6932      	ldr	r2, [r6, #16]
 800241c:	3a01      	subs	r2, #1
 800241e:	0612      	lsls	r2, r2, #24
 8002420:	f002 42fe 	and.w	r2, r2, #2130706432	; 0x7f000000
 8002424:	4313      	orrs	r3, r2
 8002426:	6423      	str	r3, [r4, #64]	; 0x40
 8002428:	6ae3      	ldr	r3, [r4, #44]	; 0x2c
 800242a:	6972      	ldr	r2, [r6, #20]
 800242c:	f423 6340 	bic.w	r3, r3, #3072	; 0xc00
 8002430:	4313      	orrs	r3, r2
 8002432:	62e3      	str	r3, [r4, #44]	; 0x2c
 8002434:	6ae3      	ldr	r3, [r4, #44]	; 0x2c
 8002436:	69b2      	ldr	r2, [r6, #24]
 8002438:	f423 7300 	bic.w	r3, r3, #512	; 0x200
 800243c:	4313      	orrs	r3, r2
 800243e:	62e3      	str	r3, [r4, #44]	; 0x2c
 8002440:	6ae3      	ldr	r3, [r4, #44]	; 0x2c
 8002442:	f423 7380 	bic.w	r3, r3, #256	; 0x100
 8002446:	62e3      	str	r3, [r4, #44]	; 0x2c
 8002448:	6c63      	ldr	r3, [r4, #68]	; 0x44
 800244a:	69f2      	ldr	r2, [r6, #28]
 800244c:	f423 437f 	bic.w	r3, r3, #65280	; 0xff00
 8002450:	f023 03f8 	bic.w	r3, r3, #248	; 0xf8
 8002454:	ea43 03c2 	orr.w	r3, r3, r2, lsl #3
 8002458:	6463      	str	r3, [r4, #68]	; 0x44
 800245a:	6ae3      	ldr	r3, [r4, #44]	; 0x2c
 800245c:	f443 7380 	orr.w	r3, r3, #256	; 0x100
 8002460:	62e3      	str	r3, [r4, #44]	; 0x2c
 8002462:	6ae3      	ldr	r3, [r4, #44]	; 0x2c
 8002464:	b9b5      	cbnz	r5, 8002494 <RCCEx_PLL3_Config+0xcc>
 8002466:	f443 0380 	orr.w	r3, r3, #4194304	; 0x400000
 800246a:	62e3      	str	r3, [r4, #44]	; 0x2c
 800246c:	4c11      	ldr	r4, [pc, #68]	; (80024b4 <RCCEx_PLL3_Config+0xec>)
 800246e:	6823      	ldr	r3, [r4, #0]
 8002470:	f043 5380 	orr.w	r3, r3, #268435456	; 0x10000000
 8002474:	6023      	str	r3, [r4, #0]
 8002476:	f7fe fd15 	bl	8000ea4 <HAL_GetTick>
 800247a:	4605      	mov	r5, r0
 800247c:	6823      	ldr	r3, [r4, #0]
 800247e:	009b      	lsls	r3, r3, #2
 8002480:	d50f      	bpl.n	80024a2 <RCCEx_PLL3_Config+0xda>
 8002482:	2000      	movs	r0, #0
 8002484:	e005      	b.n	8002492 <RCCEx_PLL3_Config+0xca>
 8002486:	f7fe fd0d 	bl	8000ea4 <HAL_GetTick>
 800248a:	1bc0      	subs	r0, r0, r7
 800248c:	2802      	cmp	r0, #2
 800248e:	d9ab      	bls.n	80023e8 <RCCEx_PLL3_Config+0x20>
 8002490:	2003      	movs	r0, #3
 8002492:	bdf8      	pop	{r3, r4, r5, r6, r7, pc}
 8002494:	2d01      	cmp	r5, #1
 8002496:	bf0c      	ite	eq
 8002498:	f443 0300 	orreq.w	r3, r3, #8388608	; 0x800000
 800249c:	f043 7380 	orrne.w	r3, r3, #16777216	; 0x1000000
 80024a0:	e7e3      	b.n	800246a <RCCEx_PLL3_Config+0xa2>
 80024a2:	f7fe fcff 	bl	8000ea4 <HAL_GetTick>
 80024a6:	1b40      	subs	r0, r0, r5
 80024a8:	2802      	cmp	r0, #2
 80024aa:	d9e7      	bls.n	800247c <RCCEx_PLL3_Config+0xb4>
 80024ac:	e7f0      	b.n	8002490 <RCCEx_PLL3_Config+0xc8>
 80024ae:	2001      	movs	r0, #1
 80024b0:	e7ef      	b.n	8002492 <RCCEx_PLL3_Config+0xca>
 80024b2:	bf00      	nop
 80024b4:	58024400 	.word	0x58024400

080024b8 <HAL_RCCEx_PeriphCLKConfig>:
 80024b8:	e92d 43f8 	stmdb	sp!, {r3, r4, r5, r6, r7, r8, r9, lr}
 80024bc:	6806      	ldr	r6, [r0, #0]
 80024be:	4604      	mov	r4, r0
 80024c0:	f016 6600 	ands.w	r6, r6, #134217728	; 0x8000000
 80024c4:	d023      	beq.n	800250e <HAL_RCCEx_PeriphCLKConfig+0x56>
 80024c6:	6e43      	ldr	r3, [r0, #100]	; 0x64
 80024c8:	f5b3 1f80 	cmp.w	r3, #1048576	; 0x100000
 80024cc:	d018      	beq.n	8002500 <HAL_RCCEx_PeriphCLKConfig+0x48>
 80024ce:	d802      	bhi.n	80024d6 <HAL_RCCEx_PeriphCLKConfig+0x1e>
 80024d0:	b183      	cbz	r3, 80024f4 <HAL_RCCEx_PeriphCLKConfig+0x3c>
 80024d2:	2601      	movs	r6, #1
 80024d4:	e01b      	b.n	800250e <HAL_RCCEx_PeriphCLKConfig+0x56>
 80024d6:	f5b3 1f00 	cmp.w	r3, #2097152	; 0x200000
 80024da:	d023      	beq.n	8002524 <HAL_RCCEx_PeriphCLKConfig+0x6c>
 80024dc:	f5b3 1f40 	cmp.w	r3, #3145728	; 0x300000
 80024e0:	d1f7      	bne.n	80024d2 <HAL_RCCEx_PeriphCLKConfig+0x1a>
 80024e2:	4a9f      	ldr	r2, [pc, #636]	; (8002760 <HAL_RCCEx_PeriphCLKConfig+0x2a8>)
 80024e4:	2600      	movs	r6, #0
 80024e6:	6e61      	ldr	r1, [r4, #100]	; 0x64
 80024e8:	6d13      	ldr	r3, [r2, #80]	; 0x50
 80024ea:	f423 1340 	bic.w	r3, r3, #3145728	; 0x300000
 80024ee:	430b      	orrs	r3, r1
 80024f0:	6513      	str	r3, [r2, #80]	; 0x50
 80024f2:	e00c      	b.n	800250e <HAL_RCCEx_PeriphCLKConfig+0x56>
 80024f4:	4a9a      	ldr	r2, [pc, #616]	; (8002760 <HAL_RCCEx_PeriphCLKConfig+0x2a8>)
 80024f6:	6ad3      	ldr	r3, [r2, #44]	; 0x2c
 80024f8:	f443 3300 	orr.w	r3, r3, #131072	; 0x20000
 80024fc:	62d3      	str	r3, [r2, #44]	; 0x2c
 80024fe:	e7f0      	b.n	80024e2 <HAL_RCCEx_PeriphCLKConfig+0x2a>
 8002500:	2102      	movs	r1, #2
 8002502:	3004      	adds	r0, #4
 8002504:	f7ff fee8 	bl	80022d8 <RCCEx_PLL2_Config>
 8002508:	4606      	mov	r6, r0
 800250a:	2800      	cmp	r0, #0
 800250c:	d0e9      	beq.n	80024e2 <HAL_RCCEx_PeriphCLKConfig+0x2a>
 800250e:	6823      	ldr	r3, [r4, #0]
 8002510:	05dd      	lsls	r5, r3, #23
 8002512:	d534      	bpl.n	800257e <HAL_RCCEx_PeriphCLKConfig+0xc6>
 8002514:	6d63      	ldr	r3, [r4, #84]	; 0x54
 8002516:	2b04      	cmp	r3, #4
 8002518:	d830      	bhi.n	800257c <HAL_RCCEx_PeriphCLKConfig+0xc4>
 800251a:	e8df f003 	tbb	[pc, r3]
 800251e:	0f08      	.short	0x0f08
 8002520:	0d29      	.short	0x0d29
 8002522:	0d          	.byte	0x0d
 8002523:	00          	.byte	0x00
 8002524:	2102      	movs	r1, #2
 8002526:	3024      	adds	r0, #36	; 0x24
 8002528:	f7ff ff4e 	bl	80023c8 <RCCEx_PLL3_Config>
 800252c:	e7ec      	b.n	8002508 <HAL_RCCEx_PeriphCLKConfig+0x50>
 800252e:	4a8c      	ldr	r2, [pc, #560]	; (8002760 <HAL_RCCEx_PeriphCLKConfig+0x2a8>)
 8002530:	6ad3      	ldr	r3, [r2, #44]	; 0x2c
 8002532:	f443 3300 	orr.w	r3, r3, #131072	; 0x20000
 8002536:	62d3      	str	r3, [r2, #44]	; 0x2c
 8002538:	4635      	mov	r5, r6
 800253a:	e004      	b.n	8002546 <HAL_RCCEx_PeriphCLKConfig+0x8e>
 800253c:	2100      	movs	r1, #0
 800253e:	1d20      	adds	r0, r4, #4
 8002540:	f7ff feca 	bl	80022d8 <RCCEx_PLL2_Config>
 8002544:	4605      	mov	r5, r0
 8002546:	b9e5      	cbnz	r5, 8002582 <HAL_RCCEx_PeriphCLKConfig+0xca>
 8002548:	4a85      	ldr	r2, [pc, #532]	; (8002760 <HAL_RCCEx_PeriphCLKConfig+0x2a8>)
 800254a:	6d61      	ldr	r1, [r4, #84]	; 0x54
 800254c:	6d13      	ldr	r3, [r2, #80]	; 0x50
 800254e:	f023 0307 	bic.w	r3, r3, #7
 8002552:	430b      	orrs	r3, r1
 8002554:	6513      	str	r3, [r2, #80]	; 0x50
 8002556:	6823      	ldr	r3, [r4, #0]
 8002558:	0598      	lsls	r0, r3, #22
 800255a:	d521      	bpl.n	80025a0 <HAL_RCCEx_PeriphCLKConfig+0xe8>
 800255c:	6da3      	ldr	r3, [r4, #88]	; 0x58
 800255e:	2b80      	cmp	r3, #128	; 0x80
 8002560:	d03b      	beq.n	80025da <HAL_RCCEx_PeriphCLKConfig+0x122>
 8002562:	d810      	bhi.n	8002586 <HAL_RCCEx_PeriphCLKConfig+0xce>
 8002564:	b36b      	cbz	r3, 80025c2 <HAL_RCCEx_PeriphCLKConfig+0x10a>
 8002566:	2b40      	cmp	r3, #64	; 0x40
 8002568:	d031      	beq.n	80025ce <HAL_RCCEx_PeriphCLKConfig+0x116>
 800256a:	2601      	movs	r6, #1
 800256c:	4635      	mov	r5, r6
 800256e:	e017      	b.n	80025a0 <HAL_RCCEx_PeriphCLKConfig+0xe8>
 8002570:	2100      	movs	r1, #0
 8002572:	f104 0024 	add.w	r0, r4, #36	; 0x24
 8002576:	f7ff ff27 	bl	80023c8 <RCCEx_PLL3_Config>
 800257a:	e7e3      	b.n	8002544 <HAL_RCCEx_PeriphCLKConfig+0x8c>
 800257c:	2601      	movs	r6, #1
 800257e:	4635      	mov	r5, r6
 8002580:	e7e9      	b.n	8002556 <HAL_RCCEx_PeriphCLKConfig+0x9e>
 8002582:	462e      	mov	r6, r5
 8002584:	e7e7      	b.n	8002556 <HAL_RCCEx_PeriphCLKConfig+0x9e>
 8002586:	2bc0      	cmp	r3, #192	; 0xc0
 8002588:	d002      	beq.n	8002590 <HAL_RCCEx_PeriphCLKConfig+0xd8>
 800258a:	f5b3 7f80 	cmp.w	r3, #256	; 0x100
 800258e:	d1ec      	bne.n	800256a <HAL_RCCEx_PeriphCLKConfig+0xb2>
 8002590:	bb4d      	cbnz	r5, 80025e6 <HAL_RCCEx_PeriphCLKConfig+0x12e>
 8002592:	4a73      	ldr	r2, [pc, #460]	; (8002760 <HAL_RCCEx_PeriphCLKConfig+0x2a8>)
 8002594:	6da1      	ldr	r1, [r4, #88]	; 0x58
 8002596:	6d13      	ldr	r3, [r2, #80]	; 0x50
 8002598:	f423 73e0 	bic.w	r3, r3, #448	; 0x1c0
 800259c:	430b      	orrs	r3, r1
 800259e:	6513      	str	r3, [r2, #80]	; 0x50
 80025a0:	6823      	ldr	r3, [r4, #0]
 80025a2:	0559      	lsls	r1, r3, #21
 80025a4:	d530      	bpl.n	8002608 <HAL_RCCEx_PeriphCLKConfig+0x150>
 80025a6:	f8d4 30a4 	ldr.w	r3, [r4, #164]	; 0xa4
 80025aa:	f5b3 0f80 	cmp.w	r3, #4194304	; 0x400000
 80025ae:	d047      	beq.n	8002640 <HAL_RCCEx_PeriphCLKConfig+0x188>
 80025b0:	d81b      	bhi.n	80025ea <HAL_RCCEx_PeriphCLKConfig+0x132>
 80025b2:	2b00      	cmp	r3, #0
 80025b4:	d038      	beq.n	8002628 <HAL_RCCEx_PeriphCLKConfig+0x170>
 80025b6:	f5b3 1f00 	cmp.w	r3, #2097152	; 0x200000
 80025ba:	d03b      	beq.n	8002634 <HAL_RCCEx_PeriphCLKConfig+0x17c>
 80025bc:	2601      	movs	r6, #1
 80025be:	4635      	mov	r5, r6
 80025c0:	e022      	b.n	8002608 <HAL_RCCEx_PeriphCLKConfig+0x150>
 80025c2:	4a67      	ldr	r2, [pc, #412]	; (8002760 <HAL_RCCEx_PeriphCLKConfig+0x2a8>)
 80025c4:	6ad3      	ldr	r3, [r2, #44]	; 0x2c
 80025c6:	f443 3300 	orr.w	r3, r3, #131072	; 0x20000
 80025ca:	62d3      	str	r3, [r2, #44]	; 0x2c
 80025cc:	e7e0      	b.n	8002590 <HAL_RCCEx_PeriphCLKConfig+0xd8>
 80025ce:	2100      	movs	r1, #0
 80025d0:	1d20      	adds	r0, r4, #4
 80025d2:	f7ff fe81 	bl	80022d8 <RCCEx_PLL2_Config>
 80025d6:	4605      	mov	r5, r0
 80025d8:	e7da      	b.n	8002590 <HAL_RCCEx_PeriphCLKConfig+0xd8>
 80025da:	2100      	movs	r1, #0
 80025dc:	f104 0024 	add.w	r0, r4, #36	; 0x24
 80025e0:	f7ff fef2 	bl	80023c8 <RCCEx_PLL3_Config>
 80025e4:	e7f7      	b.n	80025d6 <HAL_RCCEx_PeriphCLKConfig+0x11e>
 80025e6:	462e      	mov	r6, r5
 80025e8:	e7da      	b.n	80025a0 <HAL_RCCEx_PeriphCLKConfig+0xe8>
 80025ea:	f5b3 0fc0 	cmp.w	r3, #6291456	; 0x600000
 80025ee:	d002      	beq.n	80025f6 <HAL_RCCEx_PeriphCLKConfig+0x13e>
 80025f0:	f5b3 0f00 	cmp.w	r3, #8388608	; 0x800000
 80025f4:	d1e2      	bne.n	80025bc <HAL_RCCEx_PeriphCLKConfig+0x104>
 80025f6:	bb4d      	cbnz	r5, 800264c <HAL_RCCEx_PeriphCLKConfig+0x194>
 80025f8:	4a59      	ldr	r2, [pc, #356]	; (8002760 <HAL_RCCEx_PeriphCLKConfig+0x2a8>)
 80025fa:	f8d4 10a4 	ldr.w	r1, [r4, #164]	; 0xa4
 80025fe:	6d93      	ldr	r3, [r2, #88]	; 0x58
 8002600:	f423 0360 	bic.w	r3, r3, #14680064	; 0xe00000
 8002604:	430b      	orrs	r3, r1
 8002606:	6593      	str	r3, [r2, #88]	; 0x58
 8002608:	6823      	ldr	r3, [r4, #0]
 800260a:	051a      	lsls	r2, r3, #20
 800260c:	d52f      	bpl.n	800266e <HAL_RCCEx_PeriphCLKConfig+0x1b6>
 800260e:	f8d4 30a8 	ldr.w	r3, [r4, #168]	; 0xa8
 8002612:	f1b3 7f00 	cmp.w	r3, #33554432	; 0x2000000
 8002616:	d041      	beq.n	800269c <HAL_RCCEx_PeriphCLKConfig+0x1e4>
 8002618:	d81a      	bhi.n	8002650 <HAL_RCCEx_PeriphCLKConfig+0x198>
 800261a:	b39b      	cbz	r3, 8002684 <HAL_RCCEx_PeriphCLKConfig+0x1cc>
 800261c:	f1b3 7f80 	cmp.w	r3, #16777216	; 0x1000000
 8002620:	d036      	beq.n	8002690 <HAL_RCCEx_PeriphCLKConfig+0x1d8>
 8002622:	2601      	movs	r6, #1
 8002624:	4635      	mov	r5, r6
 8002626:	e022      	b.n	800266e <HAL_RCCEx_PeriphCLKConfig+0x1b6>
 8002628:	4a4d      	ldr	r2, [pc, #308]	; (8002760 <HAL_RCCEx_PeriphCLKConfig+0x2a8>)
 800262a:	6ad3      	ldr	r3, [r2, #44]	; 0x2c
 800262c:	f443 3300 	orr.w	r3, r3, #131072	; 0x20000
 8002630:	62d3      	str	r3, [r2, #44]	; 0x2c
 8002632:	e7e0      	b.n	80025f6 <HAL_RCCEx_PeriphCLKConfig+0x13e>
 8002634:	2100      	movs	r1, #0
 8002636:	1d20      	adds	r0, r4, #4
 8002638:	f7ff fe4e 	bl	80022d8 <RCCEx_PLL2_Config>
 800263c:	4605      	mov	r5, r0
 800263e:	e7da      	b.n	80025f6 <HAL_RCCEx_PeriphCLKConfig+0x13e>
 8002640:	2100      	movs	r1, #0
 8002642:	f104 0024 	add.w	r0, r4, #36	; 0x24
 8002646:	f7ff febf 	bl	80023c8 <RCCEx_PLL3_Config>
 800264a:	e7f7      	b.n	800263c <HAL_RCCEx_PeriphCLKConfig+0x184>
 800264c:	462e      	mov	r6, r5
 800264e:	e7db      	b.n	8002608 <HAL_RCCEx_PeriphCLKConfig+0x150>
 8002650:	f1b3 7f40 	cmp.w	r3, #50331648	; 0x3000000
 8002654:	d002      	beq.n	800265c <HAL_RCCEx_PeriphCLKConfig+0x1a4>
 8002656:	f1b3 6f80 	cmp.w	r3, #67108864	; 0x4000000
 800265a:	d1e2      	bne.n	8002622 <HAL_RCCEx_PeriphCLKConfig+0x16a>
 800265c:	bb25      	cbnz	r5, 80026a8 <HAL_RCCEx_PeriphCLKConfig+0x1f0>
 800265e:	4a40      	ldr	r2, [pc, #256]	; (8002760 <HAL_RCCEx_PeriphCLKConfig+0x2a8>)
 8002660:	f8d4 10a8 	ldr.w	r1, [r4, #168]	; 0xa8
 8002664:	6d93      	ldr	r3, [r2, #88]	; 0x58
 8002666:	f023 63e0 	bic.w	r3, r3, #117440512	; 0x7000000
 800266a:	430b      	orrs	r3, r1
 800266c:	6593      	str	r3, [r2, #88]	; 0x58
 800266e:	6823      	ldr	r3, [r4, #0]
 8002670:	019b      	lsls	r3, r3, #6
 8002672:	d527      	bpl.n	80026c4 <HAL_RCCEx_PeriphCLKConfig+0x20c>
 8002674:	6ca3      	ldr	r3, [r4, #72]	; 0x48
 8002676:	2b10      	cmp	r3, #16
 8002678:	d033      	beq.n	80026e2 <HAL_RCCEx_PeriphCLKConfig+0x22a>
 800267a:	d817      	bhi.n	80026ac <HAL_RCCEx_PeriphCLKConfig+0x1f4>
 800267c:	b1d3      	cbz	r3, 80026b4 <HAL_RCCEx_PeriphCLKConfig+0x1fc>
 800267e:	2601      	movs	r6, #1
 8002680:	4635      	mov	r5, r6
 8002682:	e01f      	b.n	80026c4 <HAL_RCCEx_PeriphCLKConfig+0x20c>
 8002684:	4a36      	ldr	r2, [pc, #216]	; (8002760 <HAL_RCCEx_PeriphCLKConfig+0x2a8>)
 8002686:	6ad3      	ldr	r3, [r2, #44]	; 0x2c
 8002688:	f443 3300 	orr.w	r3, r3, #131072	; 0x20000
 800268c:	62d3      	str	r3, [r2, #44]	; 0x2c
 800268e:	e7e5      	b.n	800265c <HAL_RCCEx_PeriphCLKConfig+0x1a4>
 8002690:	2100      	movs	r1, #0
 8002692:	1d20      	adds	r0, r4, #4
 8002694:	f7ff fe20 	bl	80022d8 <RCCEx_PLL2_Config>
 8002698:	4605      	mov	r5, r0
 800269a:	e7df      	b.n	800265c <HAL_RCCEx_PeriphCLKConfig+0x1a4>
 800269c:	2100      	movs	r1, #0
 800269e:	f104 0024 	add.w	r0, r4, #36	; 0x24
 80026a2:	f7ff fe91 	bl	80023c8 <RCCEx_PLL3_Config>
 80026a6:	e7f7      	b.n	8002698 <HAL_RCCEx_PeriphCLKConfig+0x1e0>
 80026a8:	462e      	mov	r6, r5
 80026aa:	e7e0      	b.n	800266e <HAL_RCCEx_PeriphCLKConfig+0x1b6>
 80026ac:	2b20      	cmp	r3, #32
 80026ae:	d01e      	beq.n	80026ee <HAL_RCCEx_PeriphCLKConfig+0x236>
 80026b0:	2b30      	cmp	r3, #48	; 0x30
 80026b2:	d1e4      	bne.n	800267e <HAL_RCCEx_PeriphCLKConfig+0x1c6>
 80026b4:	bb0d      	cbnz	r5, 80026fa <HAL_RCCEx_PeriphCLKConfig+0x242>
 80026b6:	4a2a      	ldr	r2, [pc, #168]	; (8002760 <HAL_RCCEx_PeriphCLKConfig+0x2a8>)
 80026b8:	6ca1      	ldr	r1, [r4, #72]	; 0x48
 80026ba:	6cd3      	ldr	r3, [r2, #76]	; 0x4c
 80026bc:	f023 0330 	bic.w	r3, r3, #48	; 0x30
 80026c0:	430b      	orrs	r3, r1
 80026c2:	64d3      	str	r3, [r2, #76]	; 0x4c
 80026c4:	6823      	ldr	r3, [r4, #0]
 80026c6:	04df      	lsls	r7, r3, #19
 80026c8:	d527      	bpl.n	800271a <HAL_RCCEx_PeriphCLKConfig+0x262>
 80026ca:	6de3      	ldr	r3, [r4, #92]	; 0x5c
 80026cc:	f5b3 5f00 	cmp.w	r3, #8192	; 0x2000
 80026d0:	d03e      	beq.n	8002750 <HAL_RCCEx_PeriphCLKConfig+0x298>
 80026d2:	d814      	bhi.n	80026fe <HAL_RCCEx_PeriphCLKConfig+0x246>
 80026d4:	b383      	cbz	r3, 8002738 <HAL_RCCEx_PeriphCLKConfig+0x280>
 80026d6:	f5b3 5f80 	cmp.w	r3, #4096	; 0x1000
 80026da:	d033      	beq.n	8002744 <HAL_RCCEx_PeriphCLKConfig+0x28c>
 80026dc:	2601      	movs	r6, #1
 80026de:	4635      	mov	r5, r6
 80026e0:	e01b      	b.n	800271a <HAL_RCCEx_PeriphCLKConfig+0x262>
 80026e2:	4a1f      	ldr	r2, [pc, #124]	; (8002760 <HAL_RCCEx_PeriphCLKConfig+0x2a8>)
 80026e4:	6ad3      	ldr	r3, [r2, #44]	; 0x2c
 80026e6:	f443 3300 	orr.w	r3, r3, #131072	; 0x20000
 80026ea:	62d3      	str	r3, [r2, #44]	; 0x2c
 80026ec:	e7e2      	b.n	80026b4 <HAL_RCCEx_PeriphCLKConfig+0x1fc>
 80026ee:	2102      	movs	r1, #2
 80026f0:	1d20      	adds	r0, r4, #4
 80026f2:	f7ff fdf1 	bl	80022d8 <RCCEx_PLL2_Config>
 80026f6:	4605      	mov	r5, r0
 80026f8:	e7dc      	b.n	80026b4 <HAL_RCCEx_PeriphCLKConfig+0x1fc>
 80026fa:	462e      	mov	r6, r5
 80026fc:	e7e2      	b.n	80026c4 <HAL_RCCEx_PeriphCLKConfig+0x20c>
 80026fe:	f5b3 5f40 	cmp.w	r3, #12288	; 0x3000
 8002702:	d002      	beq.n	800270a <HAL_RCCEx_PeriphCLKConfig+0x252>
 8002704:	f5b3 4f80 	cmp.w	r3, #16384	; 0x4000
 8002708:	d1e8      	bne.n	80026dc <HAL_RCCEx_PeriphCLKConfig+0x224>
 800270a:	bb3d      	cbnz	r5, 800275c <HAL_RCCEx_PeriphCLKConfig+0x2a4>
 800270c:	4a14      	ldr	r2, [pc, #80]	; (8002760 <HAL_RCCEx_PeriphCLKConfig+0x2a8>)
 800270e:	6de1      	ldr	r1, [r4, #92]	; 0x5c
 8002710:	6d13      	ldr	r3, [r2, #80]	; 0x50
 8002712:	f423 43e0 	bic.w	r3, r3, #28672	; 0x7000
 8002716:	430b      	orrs	r3, r1
 8002718:	6513      	str	r3, [r2, #80]	; 0x50
 800271a:	6823      	ldr	r3, [r4, #0]
 800271c:	0498      	lsls	r0, r3, #18
 800271e:	d532      	bpl.n	8002786 <HAL_RCCEx_PeriphCLKConfig+0x2ce>
 8002720:	6e23      	ldr	r3, [r4, #96]	; 0x60
 8002722:	f5b3 3f00 	cmp.w	r3, #131072	; 0x20000
 8002726:	d044      	beq.n	80027b2 <HAL_RCCEx_PeriphCLKConfig+0x2fa>
 8002728:	d81c      	bhi.n	8002764 <HAL_RCCEx_PeriphCLKConfig+0x2ac>
 800272a:	b323      	cbz	r3, 8002776 <HAL_RCCEx_PeriphCLKConfig+0x2be>
 800272c:	f5b3 3f80 	cmp.w	r3, #65536	; 0x10000
 8002730:	d039      	beq.n	80027a6 <HAL_RCCEx_PeriphCLKConfig+0x2ee>
 8002732:	2601      	movs	r6, #1
 8002734:	4635      	mov	r5, r6
 8002736:	e026      	b.n	8002786 <HAL_RCCEx_PeriphCLKConfig+0x2ce>
 8002738:	4a09      	ldr	r2, [pc, #36]	; (8002760 <HAL_RCCEx_PeriphCLKConfig+0x2a8>)
 800273a:	6ad3      	ldr	r3, [r2, #44]	; 0x2c
 800273c:	f443 3300 	orr.w	r3, r3, #131072	; 0x20000
 8002740:	62d3      	str	r3, [r2, #44]	; 0x2c
 8002742:	e7e2      	b.n	800270a <HAL_RCCEx_PeriphCLKConfig+0x252>
 8002744:	2100      	movs	r1, #0
 8002746:	1d20      	adds	r0, r4, #4
 8002748:	f7ff fdc6 	bl	80022d8 <RCCEx_PLL2_Config>
 800274c:	4605      	mov	r5, r0
 800274e:	e7dc      	b.n	800270a <HAL_RCCEx_PeriphCLKConfig+0x252>
 8002750:	2100      	movs	r1, #0
 8002752:	f104 0024 	add.w	r0, r4, #36	; 0x24
 8002756:	f7ff fe37 	bl	80023c8 <RCCEx_PLL3_Config>
 800275a:	e7f7      	b.n	800274c <HAL_RCCEx_PeriphCLKConfig+0x294>
 800275c:	462e      	mov	r6, r5
 800275e:	e7dc      	b.n	800271a <HAL_RCCEx_PeriphCLKConfig+0x262>
 8002760:	58024400 	.word	0x58024400
 8002764:	f5b3 2f80 	cmp.w	r3, #262144	; 0x40000
 8002768:	d005      	beq.n	8002776 <HAL_RCCEx_PeriphCLKConfig+0x2be>
 800276a:	f5b3 2fa0 	cmp.w	r3, #327680	; 0x50000
 800276e:	d002      	beq.n	8002776 <HAL_RCCEx_PeriphCLKConfig+0x2be>
 8002770:	f5b3 3f40 	cmp.w	r3, #196608	; 0x30000
 8002774:	d1dd      	bne.n	8002732 <HAL_RCCEx_PeriphCLKConfig+0x27a>
 8002776:	bb15      	cbnz	r5, 80027be <HAL_RCCEx_PeriphCLKConfig+0x306>
 8002778:	4aa0      	ldr	r2, [pc, #640]	; (80029fc <HAL_RCCEx_PeriphCLKConfig+0x544>)
 800277a:	6e21      	ldr	r1, [r4, #96]	; 0x60
 800277c:	6d13      	ldr	r3, [r2, #80]	; 0x50
 800277e:	f423 23e0 	bic.w	r3, r3, #458752	; 0x70000
 8002782:	430b      	orrs	r3, r1
 8002784:	6513      	str	r3, [r2, #80]	; 0x50
 8002786:	6823      	ldr	r3, [r4, #0]
 8002788:	0459      	lsls	r1, r3, #17
 800278a:	d52d      	bpl.n	80027e8 <HAL_RCCEx_PeriphCLKConfig+0x330>
 800278c:	f8d4 30ac 	ldr.w	r3, [r4, #172]	; 0xac
 8002790:	f1b3 5f00 	cmp.w	r3, #536870912	; 0x20000000
 8002794:	d04b      	beq.n	800282e <HAL_RCCEx_PeriphCLKConfig+0x376>
 8002796:	d814      	bhi.n	80027c2 <HAL_RCCEx_PeriphCLKConfig+0x30a>
 8002798:	b1e3      	cbz	r3, 80027d4 <HAL_RCCEx_PeriphCLKConfig+0x31c>
 800279a:	f1b3 5f80 	cmp.w	r3, #268435456	; 0x10000000
 800279e:	d040      	beq.n	8002822 <HAL_RCCEx_PeriphCLKConfig+0x36a>
 80027a0:	2601      	movs	r6, #1
 80027a2:	4635      	mov	r5, r6
 80027a4:	e020      	b.n	80027e8 <HAL_RCCEx_PeriphCLKConfig+0x330>
 80027a6:	2101      	movs	r1, #1
 80027a8:	1d20      	adds	r0, r4, #4
 80027aa:	f7ff fd95 	bl	80022d8 <RCCEx_PLL2_Config>
 80027ae:	4605      	mov	r5, r0
 80027b0:	e7e1      	b.n	8002776 <HAL_RCCEx_PeriphCLKConfig+0x2be>
 80027b2:	2101      	movs	r1, #1
 80027b4:	f104 0024 	add.w	r0, r4, #36	; 0x24
 80027b8:	f7ff fe06 	bl	80023c8 <RCCEx_PLL3_Config>
 80027bc:	e7f7      	b.n	80027ae <HAL_RCCEx_PeriphCLKConfig+0x2f6>
 80027be:	462e      	mov	r6, r5
 80027c0:	e7e1      	b.n	8002786 <HAL_RCCEx_PeriphCLKConfig+0x2ce>
 80027c2:	f1b3 4f80 	cmp.w	r3, #1073741824	; 0x40000000
 80027c6:	d005      	beq.n	80027d4 <HAL_RCCEx_PeriphCLKConfig+0x31c>
 80027c8:	f1b3 4fa0 	cmp.w	r3, #1342177280	; 0x50000000
 80027cc:	d002      	beq.n	80027d4 <HAL_RCCEx_PeriphCLKConfig+0x31c>
 80027ce:	f1b3 5f40 	cmp.w	r3, #805306368	; 0x30000000
 80027d2:	d1e5      	bne.n	80027a0 <HAL_RCCEx_PeriphCLKConfig+0x2e8>
 80027d4:	2d00      	cmp	r5, #0
 80027d6:	d130      	bne.n	800283a <HAL_RCCEx_PeriphCLKConfig+0x382>
 80027d8:	4a88      	ldr	r2, [pc, #544]	; (80029fc <HAL_RCCEx_PeriphCLKConfig+0x544>)
 80027da:	f8d4 10ac 	ldr.w	r1, [r4, #172]	; 0xac
 80027de:	6d93      	ldr	r3, [r2, #88]	; 0x58
 80027e0:	f023 43e0 	bic.w	r3, r3, #1879048192	; 0x70000000
 80027e4:	430b      	orrs	r3, r1
 80027e6:	6593      	str	r3, [r2, #88]	; 0x58
 80027e8:	6823      	ldr	r3, [r4, #0]
 80027ea:	041a      	lsls	r2, r3, #16
 80027ec:	d50f      	bpl.n	800280e <HAL_RCCEx_PeriphCLKConfig+0x356>
 80027ee:	6ee3      	ldr	r3, [r4, #108]	; 0x6c
 80027f0:	f1b3 5f80 	cmp.w	r3, #268435456	; 0x10000000
 80027f4:	d023      	beq.n	800283e <HAL_RCCEx_PeriphCLKConfig+0x386>
 80027f6:	f1b3 5f00 	cmp.w	r3, #536870912	; 0x20000000
 80027fa:	d026      	beq.n	800284a <HAL_RCCEx_PeriphCLKConfig+0x392>
 80027fc:	bb5b      	cbnz	r3, 8002856 <HAL_RCCEx_PeriphCLKConfig+0x39e>
 80027fe:	bb6d      	cbnz	r5, 800285c <HAL_RCCEx_PeriphCLKConfig+0x3a4>
 8002800:	4a7e      	ldr	r2, [pc, #504]	; (80029fc <HAL_RCCEx_PeriphCLKConfig+0x544>)
 8002802:	6ee1      	ldr	r1, [r4, #108]	; 0x6c
 8002804:	6d13      	ldr	r3, [r2, #80]	; 0x50
 8002806:	f023 5340 	bic.w	r3, r3, #805306368	; 0x30000000
 800280a:	430b      	orrs	r3, r1
 800280c:	6513      	str	r3, [r2, #80]	; 0x50
 800280e:	6823      	ldr	r3, [r4, #0]
 8002810:	01db      	lsls	r3, r3, #7
 8002812:	d533      	bpl.n	800287c <HAL_RCCEx_PeriphCLKConfig+0x3c4>
 8002814:	6c63      	ldr	r3, [r4, #68]	; 0x44
 8002816:	2b03      	cmp	r3, #3
 8002818:	d874      	bhi.n	8002904 <HAL_RCCEx_PeriphCLKConfig+0x44c>
 800281a:	e8df f003 	tbb	[pc, r3]
 800281e:	2126      	.short	0x2126
 8002820:	266d      	.short	0x266d
 8002822:	2101      	movs	r1, #1
 8002824:	1d20      	adds	r0, r4, #4
 8002826:	f7ff fd57 	bl	80022d8 <RCCEx_PLL2_Config>
 800282a:	4605      	mov	r5, r0
 800282c:	e7d2      	b.n	80027d4 <HAL_RCCEx_PeriphCLKConfig+0x31c>
 800282e:	2101      	movs	r1, #1
 8002830:	f104 0024 	add.w	r0, r4, #36	; 0x24
 8002834:	f7ff fdc8 	bl	80023c8 <RCCEx_PLL3_Config>
 8002838:	e7f7      	b.n	800282a <HAL_RCCEx_PeriphCLKConfig+0x372>
 800283a:	462e      	mov	r6, r5
 800283c:	e7d4      	b.n	80027e8 <HAL_RCCEx_PeriphCLKConfig+0x330>
 800283e:	4a6f      	ldr	r2, [pc, #444]	; (80029fc <HAL_RCCEx_PeriphCLKConfig+0x544>)
 8002840:	6ad3      	ldr	r3, [r2, #44]	; 0x2c
 8002842:	f443 3300 	orr.w	r3, r3, #131072	; 0x20000
 8002846:	62d3      	str	r3, [r2, #44]	; 0x2c
 8002848:	e7d9      	b.n	80027fe <HAL_RCCEx_PeriphCLKConfig+0x346>
 800284a:	2101      	movs	r1, #1
 800284c:	1d20      	adds	r0, r4, #4
 800284e:	f7ff fd43 	bl	80022d8 <RCCEx_PLL2_Config>
 8002852:	4605      	mov	r5, r0
 8002854:	e7d3      	b.n	80027fe <HAL_RCCEx_PeriphCLKConfig+0x346>
 8002856:	2601      	movs	r6, #1
 8002858:	4635      	mov	r5, r6
 800285a:	e7d8      	b.n	800280e <HAL_RCCEx_PeriphCLKConfig+0x356>
 800285c:	462e      	mov	r6, r5
 800285e:	e7d6      	b.n	800280e <HAL_RCCEx_PeriphCLKConfig+0x356>
 8002860:	4a66      	ldr	r2, [pc, #408]	; (80029fc <HAL_RCCEx_PeriphCLKConfig+0x544>)
 8002862:	6ad3      	ldr	r3, [r2, #44]	; 0x2c
 8002864:	f443 3300 	orr.w	r3, r3, #131072	; 0x20000
 8002868:	62d3      	str	r3, [r2, #44]	; 0x2c
 800286a:	2d00      	cmp	r5, #0
 800286c:	d14d      	bne.n	800290a <HAL_RCCEx_PeriphCLKConfig+0x452>
 800286e:	4a63      	ldr	r2, [pc, #396]	; (80029fc <HAL_RCCEx_PeriphCLKConfig+0x544>)
 8002870:	6c61      	ldr	r1, [r4, #68]	; 0x44
 8002872:	6cd3      	ldr	r3, [r2, #76]	; 0x4c
 8002874:	f023 0303 	bic.w	r3, r3, #3
 8002878:	430b      	orrs	r3, r1
 800287a:	64d3      	str	r3, [r2, #76]	; 0x4c
 800287c:	6823      	ldr	r3, [r4, #0]
 800287e:	025f      	lsls	r7, r3, #9
 8002880:	d54d      	bpl.n	800291e <HAL_RCCEx_PeriphCLKConfig+0x466>
 8002882:	4f5f      	ldr	r7, [pc, #380]	; (8002a00 <HAL_RCCEx_PeriphCLKConfig+0x548>)
 8002884:	683b      	ldr	r3, [r7, #0]
 8002886:	f443 7380 	orr.w	r3, r3, #256	; 0x100
 800288a:	603b      	str	r3, [r7, #0]
 800288c:	f7fe fb0a 	bl	8000ea4 <HAL_GetTick>
 8002890:	4680      	mov	r8, r0
 8002892:	683b      	ldr	r3, [r7, #0]
 8002894:	05d8      	lsls	r0, r3, #23
 8002896:	d53a      	bpl.n	800290e <HAL_RCCEx_PeriphCLKConfig+0x456>
 8002898:	2d00      	cmp	r5, #0
 800289a:	d161      	bne.n	8002960 <HAL_RCCEx_PeriphCLKConfig+0x4a8>
 800289c:	4b57      	ldr	r3, [pc, #348]	; (80029fc <HAL_RCCEx_PeriphCLKConfig+0x544>)
 800289e:	f8d4 00b0 	ldr.w	r0, [r4, #176]	; 0xb0
 80028a2:	6f1a      	ldr	r2, [r3, #112]	; 0x70
 80028a4:	4042      	eors	r2, r0
 80028a6:	f412 7f40 	tst.w	r2, #768	; 0x300
 80028aa:	d00b      	beq.n	80028c4 <HAL_RCCEx_PeriphCLKConfig+0x40c>
 80028ac:	6f1a      	ldr	r2, [r3, #112]	; 0x70
 80028ae:	6f19      	ldr	r1, [r3, #112]	; 0x70
 80028b0:	f422 7240 	bic.w	r2, r2, #768	; 0x300
 80028b4:	f441 3180 	orr.w	r1, r1, #65536	; 0x10000
 80028b8:	6719      	str	r1, [r3, #112]	; 0x70
 80028ba:	6f19      	ldr	r1, [r3, #112]	; 0x70
 80028bc:	f421 3180 	bic.w	r1, r1, #65536	; 0x10000
 80028c0:	6719      	str	r1, [r3, #112]	; 0x70
 80028c2:	671a      	str	r2, [r3, #112]	; 0x70
 80028c4:	f5b0 7f80 	cmp.w	r0, #256	; 0x100
 80028c8:	d036      	beq.n	8002938 <HAL_RCCEx_PeriphCLKConfig+0x480>
 80028ca:	f8d4 30b0 	ldr.w	r3, [r4, #176]	; 0xb0
 80028ce:	494b      	ldr	r1, [pc, #300]	; (80029fc <HAL_RCCEx_PeriphCLKConfig+0x544>)
 80028d0:	f403 7240 	and.w	r2, r3, #768	; 0x300
 80028d4:	f5b2 7f40 	cmp.w	r2, #768	; 0x300
 80028d8:	d13e      	bne.n	8002958 <HAL_RCCEx_PeriphCLKConfig+0x4a0>
 80028da:	6908      	ldr	r0, [r1, #16]
 80028dc:	4a49      	ldr	r2, [pc, #292]	; (8002a04 <HAL_RCCEx_PeriphCLKConfig+0x54c>)
 80028de:	f420 507c 	bic.w	r0, r0, #16128	; 0x3f00
 80028e2:	ea02 1213 	and.w	r2, r2, r3, lsr #4
 80028e6:	4302      	orrs	r2, r0
 80028e8:	610a      	str	r2, [r1, #16]
 80028ea:	f3c3 030b 	ubfx	r3, r3, #0, #12
 80028ee:	4a43      	ldr	r2, [pc, #268]	; (80029fc <HAL_RCCEx_PeriphCLKConfig+0x544>)
 80028f0:	6f11      	ldr	r1, [r2, #112]	; 0x70
 80028f2:	430b      	orrs	r3, r1
 80028f4:	6713      	str	r3, [r2, #112]	; 0x70
 80028f6:	e012      	b.n	800291e <HAL_RCCEx_PeriphCLKConfig+0x466>
 80028f8:	2102      	movs	r1, #2
 80028fa:	1d20      	adds	r0, r4, #4
 80028fc:	f7ff fcec 	bl	80022d8 <RCCEx_PLL2_Config>
 8002900:	4605      	mov	r5, r0
 8002902:	e7b2      	b.n	800286a <HAL_RCCEx_PeriphCLKConfig+0x3b2>
 8002904:	2601      	movs	r6, #1
 8002906:	4635      	mov	r5, r6
 8002908:	e7b8      	b.n	800287c <HAL_RCCEx_PeriphCLKConfig+0x3c4>
 800290a:	462e      	mov	r6, r5
 800290c:	e7b6      	b.n	800287c <HAL_RCCEx_PeriphCLKConfig+0x3c4>
 800290e:	f7fe fac9 	bl	8000ea4 <HAL_GetTick>
 8002912:	eba0 0008 	sub.w	r0, r0, r8
 8002916:	2864      	cmp	r0, #100	; 0x64
 8002918:	d9bb      	bls.n	8002892 <HAL_RCCEx_PeriphCLKConfig+0x3da>
 800291a:	2603      	movs	r6, #3
 800291c:	4635      	mov	r5, r6
 800291e:	6823      	ldr	r3, [r4, #0]
 8002920:	07da      	lsls	r2, r3, #31
 8002922:	d52d      	bpl.n	8002980 <HAL_RCCEx_PeriphCLKConfig+0x4c8>
 8002924:	6fa3      	ldr	r3, [r4, #120]	; 0x78
 8002926:	2b10      	cmp	r3, #16
 8002928:	d03b      	beq.n	80029a2 <HAL_RCCEx_PeriphCLKConfig+0x4ea>
 800292a:	d81b      	bhi.n	8002964 <HAL_RCCEx_PeriphCLKConfig+0x4ac>
 800292c:	b303      	cbz	r3, 8002970 <HAL_RCCEx_PeriphCLKConfig+0x4b8>
 800292e:	2b08      	cmp	r3, #8
 8002930:	d031      	beq.n	8002996 <HAL_RCCEx_PeriphCLKConfig+0x4de>
 8002932:	2601      	movs	r6, #1
 8002934:	4635      	mov	r5, r6
 8002936:	e023      	b.n	8002980 <HAL_RCCEx_PeriphCLKConfig+0x4c8>
 8002938:	f7fe fab4 	bl	8000ea4 <HAL_GetTick>
 800293c:	4f2f      	ldr	r7, [pc, #188]	; (80029fc <HAL_RCCEx_PeriphCLKConfig+0x544>)
 800293e:	4680      	mov	r8, r0
 8002940:	f241 3988 	movw	r9, #5000	; 0x1388
 8002944:	6f3b      	ldr	r3, [r7, #112]	; 0x70
 8002946:	0799      	lsls	r1, r3, #30
 8002948:	d4bf      	bmi.n	80028ca <HAL_RCCEx_PeriphCLKConfig+0x412>
 800294a:	f7fe faab 	bl	8000ea4 <HAL_GetTick>
 800294e:	eba0 0008 	sub.w	r0, r0, r8
 8002952:	4548      	cmp	r0, r9
 8002954:	d9f6      	bls.n	8002944 <HAL_RCCEx_PeriphCLKConfig+0x48c>
 8002956:	e7e0      	b.n	800291a <HAL_RCCEx_PeriphCLKConfig+0x462>
 8002958:	690a      	ldr	r2, [r1, #16]
 800295a:	f422 527c 	bic.w	r2, r2, #16128	; 0x3f00
 800295e:	e7c3      	b.n	80028e8 <HAL_RCCEx_PeriphCLKConfig+0x430>
 8002960:	462e      	mov	r6, r5
 8002962:	e7dc      	b.n	800291e <HAL_RCCEx_PeriphCLKConfig+0x466>
 8002964:	2b20      	cmp	r3, #32
 8002966:	d003      	beq.n	8002970 <HAL_RCCEx_PeriphCLKConfig+0x4b8>
 8002968:	2b28      	cmp	r3, #40	; 0x28
 800296a:	d001      	beq.n	8002970 <HAL_RCCEx_PeriphCLKConfig+0x4b8>
 800296c:	2b18      	cmp	r3, #24
 800296e:	d1e0      	bne.n	8002932 <HAL_RCCEx_PeriphCLKConfig+0x47a>
 8002970:	b9ed      	cbnz	r5, 80029ae <HAL_RCCEx_PeriphCLKConfig+0x4f6>
 8002972:	4a22      	ldr	r2, [pc, #136]	; (80029fc <HAL_RCCEx_PeriphCLKConfig+0x544>)
 8002974:	6fa1      	ldr	r1, [r4, #120]	; 0x78
 8002976:	6d53      	ldr	r3, [r2, #84]	; 0x54
 8002978:	f023 0338 	bic.w	r3, r3, #56	; 0x38
 800297c:	430b      	orrs	r3, r1
 800297e:	6553      	str	r3, [r2, #84]	; 0x54
 8002980:	6823      	ldr	r3, [r4, #0]
 8002982:	079b      	lsls	r3, r3, #30
 8002984:	d522      	bpl.n	80029cc <HAL_RCCEx_PeriphCLKConfig+0x514>
 8002986:	6f63      	ldr	r3, [r4, #116]	; 0x74
 8002988:	2b05      	cmp	r3, #5
 800298a:	d831      	bhi.n	80029f0 <HAL_RCCEx_PeriphCLKConfig+0x538>
 800298c:	e8df f003 	tbb	[pc, r3]
 8002990:	162a1116 	.word	0x162a1116
 8002994:	1616      	.short	0x1616
 8002996:	2101      	movs	r1, #1
 8002998:	1d20      	adds	r0, r4, #4
 800299a:	f7ff fc9d 	bl	80022d8 <RCCEx_PLL2_Config>
 800299e:	4605      	mov	r5, r0
 80029a0:	e7e6      	b.n	8002970 <HAL_RCCEx_PeriphCLKConfig+0x4b8>
 80029a2:	2101      	movs	r1, #1
 80029a4:	f104 0024 	add.w	r0, r4, #36	; 0x24
 80029a8:	f7ff fd0e 	bl	80023c8 <RCCEx_PLL3_Config>
 80029ac:	e7f7      	b.n	800299e <HAL_RCCEx_PeriphCLKConfig+0x4e6>
 80029ae:	462e      	mov	r6, r5
 80029b0:	e7e6      	b.n	8002980 <HAL_RCCEx_PeriphCLKConfig+0x4c8>
 80029b2:	2101      	movs	r1, #1
 80029b4:	1d20      	adds	r0, r4, #4
 80029b6:	f7ff fc8f 	bl	80022d8 <RCCEx_PLL2_Config>
 80029ba:	4605      	mov	r5, r0
 80029bc:	b9dd      	cbnz	r5, 80029f6 <HAL_RCCEx_PeriphCLKConfig+0x53e>
 80029be:	4a0f      	ldr	r2, [pc, #60]	; (80029fc <HAL_RCCEx_PeriphCLKConfig+0x544>)
 80029c0:	6f61      	ldr	r1, [r4, #116]	; 0x74
 80029c2:	6d53      	ldr	r3, [r2, #84]	; 0x54
 80029c4:	f023 0307 	bic.w	r3, r3, #7
 80029c8:	430b      	orrs	r3, r1
 80029ca:	6553      	str	r3, [r2, #84]	; 0x54
 80029cc:	6823      	ldr	r3, [r4, #0]
 80029ce:	075f      	lsls	r7, r3, #29
 80029d0:	d528      	bpl.n	8002a24 <HAL_RCCEx_PeriphCLKConfig+0x56c>
 80029d2:	f8d4 3090 	ldr.w	r3, [r4, #144]	; 0x90
 80029d6:	2b05      	cmp	r3, #5
 80029d8:	d83a      	bhi.n	8002a50 <HAL_RCCEx_PeriphCLKConfig+0x598>
 80029da:	e8df f003 	tbb	[pc, r3]
 80029de:	151a      	.short	0x151a
 80029e0:	1a1a1a33 	.word	0x1a1a1a33
 80029e4:	2101      	movs	r1, #1
 80029e6:	f104 0024 	add.w	r0, r4, #36	; 0x24
 80029ea:	f7ff fced 	bl	80023c8 <RCCEx_PLL3_Config>
 80029ee:	e7e4      	b.n	80029ba <HAL_RCCEx_PeriphCLKConfig+0x502>
 80029f0:	2601      	movs	r6, #1
 80029f2:	4635      	mov	r5, r6
 80029f4:	e7ea      	b.n	80029cc <HAL_RCCEx_PeriphCLKConfig+0x514>
 80029f6:	462e      	mov	r6, r5
 80029f8:	e7e8      	b.n	80029cc <HAL_RCCEx_PeriphCLKConfig+0x514>
 80029fa:	bf00      	nop
 80029fc:	58024400 	.word	0x58024400
 8002a00:	58024800 	.word	0x58024800
 8002a04:	00ffffcf 	.word	0x00ffffcf
 8002a08:	2101      	movs	r1, #1
 8002a0a:	1d20      	adds	r0, r4, #4
 8002a0c:	f7ff fc64 	bl	80022d8 <RCCEx_PLL2_Config>
 8002a10:	4605      	mov	r5, r0
 8002a12:	bb05      	cbnz	r5, 8002a56 <HAL_RCCEx_PeriphCLKConfig+0x59e>
 8002a14:	4a98      	ldr	r2, [pc, #608]	; (8002c78 <HAL_RCCEx_PeriphCLKConfig+0x7c0>)
 8002a16:	f8d4 1090 	ldr.w	r1, [r4, #144]	; 0x90
 8002a1a:	6d93      	ldr	r3, [r2, #88]	; 0x58
 8002a1c:	f023 0307 	bic.w	r3, r3, #7
 8002a20:	430b      	orrs	r3, r1
 8002a22:	6593      	str	r3, [r2, #88]	; 0x58
 8002a24:	6823      	ldr	r3, [r4, #0]
 8002a26:	0698      	lsls	r0, r3, #26
 8002a28:	d529      	bpl.n	8002a7e <HAL_RCCEx_PeriphCLKConfig+0x5c6>
 8002a2a:	f8d4 308c 	ldr.w	r3, [r4, #140]	; 0x8c
 8002a2e:	f1b3 5f00 	cmp.w	r3, #536870912	; 0x20000000
 8002a32:	d03a      	beq.n	8002aaa <HAL_RCCEx_PeriphCLKConfig+0x5f2>
 8002a34:	d811      	bhi.n	8002a5a <HAL_RCCEx_PeriphCLKConfig+0x5a2>
 8002a36:	b1cb      	cbz	r3, 8002a6c <HAL_RCCEx_PeriphCLKConfig+0x5b4>
 8002a38:	f1b3 5f80 	cmp.w	r3, #268435456	; 0x10000000
 8002a3c:	d02f      	beq.n	8002a9e <HAL_RCCEx_PeriphCLKConfig+0x5e6>
 8002a3e:	2601      	movs	r6, #1
 8002a40:	4635      	mov	r5, r6
 8002a42:	e01c      	b.n	8002a7e <HAL_RCCEx_PeriphCLKConfig+0x5c6>
 8002a44:	2101      	movs	r1, #1
 8002a46:	f104 0024 	add.w	r0, r4, #36	; 0x24
 8002a4a:	f7ff fcbd 	bl	80023c8 <RCCEx_PLL3_Config>
 8002a4e:	e7df      	b.n	8002a10 <HAL_RCCEx_PeriphCLKConfig+0x558>
 8002a50:	2601      	movs	r6, #1
 8002a52:	4635      	mov	r5, r6
 8002a54:	e7e6      	b.n	8002a24 <HAL_RCCEx_PeriphCLKConfig+0x56c>
 8002a56:	462e      	mov	r6, r5
 8002a58:	e7e4      	b.n	8002a24 <HAL_RCCEx_PeriphCLKConfig+0x56c>
 8002a5a:	f1b3 4f80 	cmp.w	r3, #1073741824	; 0x40000000
 8002a5e:	d005      	beq.n	8002a6c <HAL_RCCEx_PeriphCLKConfig+0x5b4>
 8002a60:	f1b3 4fa0 	cmp.w	r3, #1342177280	; 0x50000000
 8002a64:	d002      	beq.n	8002a6c <HAL_RCCEx_PeriphCLKConfig+0x5b4>
 8002a66:	f1b3 5f40 	cmp.w	r3, #805306368	; 0x30000000
 8002a6a:	d1e8      	bne.n	8002a3e <HAL_RCCEx_PeriphCLKConfig+0x586>
 8002a6c:	bb1d      	cbnz	r5, 8002ab6 <HAL_RCCEx_PeriphCLKConfig+0x5fe>
 8002a6e:	4a82      	ldr	r2, [pc, #520]	; (8002c78 <HAL_RCCEx_PeriphCLKConfig+0x7c0>)
 8002a70:	f8d4 108c 	ldr.w	r1, [r4, #140]	; 0x8c
 8002a74:	6d53      	ldr	r3, [r2, #84]	; 0x54
 8002a76:	f023 43e0 	bic.w	r3, r3, #1879048192	; 0x70000000
 8002a7a:	430b      	orrs	r3, r1
 8002a7c:	6553      	str	r3, [r2, #84]	; 0x54
 8002a7e:	6823      	ldr	r3, [r4, #0]
 8002a80:	0659      	lsls	r1, r3, #25
 8002a82:	d52c      	bpl.n	8002ade <HAL_RCCEx_PeriphCLKConfig+0x626>
 8002a84:	f8d4 3098 	ldr.w	r3, [r4, #152]	; 0x98
 8002a88:	f5b3 6f00 	cmp.w	r3, #2048	; 0x800
 8002a8c:	d03f      	beq.n	8002b0e <HAL_RCCEx_PeriphCLKConfig+0x656>
 8002a8e:	d814      	bhi.n	8002aba <HAL_RCCEx_PeriphCLKConfig+0x602>
 8002a90:	b1e3      	cbz	r3, 8002acc <HAL_RCCEx_PeriphCLKConfig+0x614>
 8002a92:	f5b3 6f80 	cmp.w	r3, #1024	; 0x400
 8002a96:	d034      	beq.n	8002b02 <HAL_RCCEx_PeriphCLKConfig+0x64a>
 8002a98:	2601      	movs	r6, #1
 8002a9a:	4635      	mov	r5, r6
 8002a9c:	e01f      	b.n	8002ade <HAL_RCCEx_PeriphCLKConfig+0x626>
 8002a9e:	2100      	movs	r1, #0
 8002aa0:	1d20      	adds	r0, r4, #4
 8002aa2:	f7ff fc19 	bl	80022d8 <RCCEx_PLL2_Config>
 8002aa6:	4605      	mov	r5, r0
 8002aa8:	e7e0      	b.n	8002a6c <HAL_RCCEx_PeriphCLKConfig+0x5b4>
 8002aaa:	2102      	movs	r1, #2
 8002aac:	f104 0024 	add.w	r0, r4, #36	; 0x24
 8002ab0:	f7ff fc8a 	bl	80023c8 <RCCEx_PLL3_Config>
 8002ab4:	e7f7      	b.n	8002aa6 <HAL_RCCEx_PeriphCLKConfig+0x5ee>
 8002ab6:	462e      	mov	r6, r5
 8002ab8:	e7e1      	b.n	8002a7e <HAL_RCCEx_PeriphCLKConfig+0x5c6>
 8002aba:	f5b3 5f80 	cmp.w	r3, #4096	; 0x1000
 8002abe:	d005      	beq.n	8002acc <HAL_RCCEx_PeriphCLKConfig+0x614>
 8002ac0:	f5b3 5fa0 	cmp.w	r3, #5120	; 0x1400
 8002ac4:	d002      	beq.n	8002acc <HAL_RCCEx_PeriphCLKConfig+0x614>
 8002ac6:	f5b3 6f40 	cmp.w	r3, #3072	; 0xc00
 8002aca:	d1e5      	bne.n	8002a98 <HAL_RCCEx_PeriphCLKConfig+0x5e0>
 8002acc:	bb2d      	cbnz	r5, 8002b1a <HAL_RCCEx_PeriphCLKConfig+0x662>
 8002ace:	4a6a      	ldr	r2, [pc, #424]	; (8002c78 <HAL_RCCEx_PeriphCLKConfig+0x7c0>)
 8002ad0:	f8d4 1098 	ldr.w	r1, [r4, #152]	; 0x98
 8002ad4:	6d93      	ldr	r3, [r2, #88]	; 0x58
 8002ad6:	f423 53e0 	bic.w	r3, r3, #7168	; 0x1c00
 8002ada:	430b      	orrs	r3, r1
 8002adc:	6593      	str	r3, [r2, #88]	; 0x58
 8002ade:	6823      	ldr	r3, [r4, #0]
 8002ae0:	061a      	lsls	r2, r3, #24
 8002ae2:	d530      	bpl.n	8002b46 <HAL_RCCEx_PeriphCLKConfig+0x68e>
 8002ae4:	f8d4 309c 	ldr.w	r3, [r4, #156]	; 0x9c
 8002ae8:	f5b3 4f80 	cmp.w	r3, #16384	; 0x4000
 8002aec:	f000 80a4 	beq.w	8002c38 <HAL_RCCEx_PeriphCLKConfig+0x780>
 8002af0:	d815      	bhi.n	8002b1e <HAL_RCCEx_PeriphCLKConfig+0x666>
 8002af2:	b1eb      	cbz	r3, 8002b30 <HAL_RCCEx_PeriphCLKConfig+0x678>
 8002af4:	f5b3 5f00 	cmp.w	r3, #8192	; 0x2000
 8002af8:	f000 8098 	beq.w	8002c2c <HAL_RCCEx_PeriphCLKConfig+0x774>
 8002afc:	2601      	movs	r6, #1
 8002afe:	4635      	mov	r5, r6
 8002b00:	e021      	b.n	8002b46 <HAL_RCCEx_PeriphCLKConfig+0x68e>
 8002b02:	2100      	movs	r1, #0
 8002b04:	1d20      	adds	r0, r4, #4
 8002b06:	f7ff fbe7 	bl	80022d8 <RCCEx_PLL2_Config>
 8002b0a:	4605      	mov	r5, r0
 8002b0c:	e7de      	b.n	8002acc <HAL_RCCEx_PeriphCLKConfig+0x614>
 8002b0e:	2102      	movs	r1, #2
 8002b10:	f104 0024 	add.w	r0, r4, #36	; 0x24
 8002b14:	f7ff fc58 	bl	80023c8 <RCCEx_PLL3_Config>
 8002b18:	e7f7      	b.n	8002b0a <HAL_RCCEx_PeriphCLKConfig+0x652>
 8002b1a:	462e      	mov	r6, r5
 8002b1c:	e7df      	b.n	8002ade <HAL_RCCEx_PeriphCLKConfig+0x626>
 8002b1e:	f5b3 4f00 	cmp.w	r3, #32768	; 0x8000
 8002b22:	d005      	beq.n	8002b30 <HAL_RCCEx_PeriphCLKConfig+0x678>
 8002b24:	f5b3 4f20 	cmp.w	r3, #40960	; 0xa000
 8002b28:	d002      	beq.n	8002b30 <HAL_RCCEx_PeriphCLKConfig+0x678>
 8002b2a:	f5b3 4fc0 	cmp.w	r3, #24576	; 0x6000
 8002b2e:	d1e5      	bne.n	8002afc <HAL_RCCEx_PeriphCLKConfig+0x644>
 8002b30:	2d00      	cmp	r5, #0
 8002b32:	f040 8087 	bne.w	8002c44 <HAL_RCCEx_PeriphCLKConfig+0x78c>
 8002b36:	4a50      	ldr	r2, [pc, #320]	; (8002c78 <HAL_RCCEx_PeriphCLKConfig+0x7c0>)
 8002b38:	f8d4 109c 	ldr.w	r1, [r4, #156]	; 0x9c
 8002b3c:	6d93      	ldr	r3, [r2, #88]	; 0x58
 8002b3e:	f423 4360 	bic.w	r3, r3, #57344	; 0xe000
 8002b42:	430b      	orrs	r3, r1
 8002b44:	6593      	str	r3, [r2, #88]	; 0x58
 8002b46:	6823      	ldr	r3, [r4, #0]
 8002b48:	071b      	lsls	r3, r3, #28
 8002b4a:	d514      	bpl.n	8002b76 <HAL_RCCEx_PeriphCLKConfig+0x6be>
 8002b4c:	f8d4 3080 	ldr.w	r3, [r4, #128]	; 0x80
 8002b50:	f5b3 5f80 	cmp.w	r3, #4096	; 0x1000
 8002b54:	d107      	bne.n	8002b66 <HAL_RCCEx_PeriphCLKConfig+0x6ae>
 8002b56:	2102      	movs	r1, #2
 8002b58:	f104 0024 	add.w	r0, r4, #36	; 0x24
 8002b5c:	f7ff fc34 	bl	80023c8 <RCCEx_PLL3_Config>
 8002b60:	2800      	cmp	r0, #0
 8002b62:	bf18      	it	ne
 8002b64:	2601      	movne	r6, #1
 8002b66:	4a44      	ldr	r2, [pc, #272]	; (8002c78 <HAL_RCCEx_PeriphCLKConfig+0x7c0>)
 8002b68:	f8d4 1080 	ldr.w	r1, [r4, #128]	; 0x80
 8002b6c:	6d53      	ldr	r3, [r2, #84]	; 0x54
 8002b6e:	f423 5340 	bic.w	r3, r3, #12288	; 0x3000
 8002b72:	430b      	orrs	r3, r1
 8002b74:	6553      	str	r3, [r2, #84]	; 0x54
 8002b76:	6823      	ldr	r3, [r4, #0]
 8002b78:	06df      	lsls	r7, r3, #27
 8002b7a:	d514      	bpl.n	8002ba6 <HAL_RCCEx_PeriphCLKConfig+0x6ee>
 8002b7c:	f8d4 3094 	ldr.w	r3, [r4, #148]	; 0x94
 8002b80:	f5b3 7f80 	cmp.w	r3, #256	; 0x100
 8002b84:	d107      	bne.n	8002b96 <HAL_RCCEx_PeriphCLKConfig+0x6de>
 8002b86:	2102      	movs	r1, #2
 8002b88:	f104 0024 	add.w	r0, r4, #36	; 0x24
 8002b8c:	f7ff fc1c 	bl	80023c8 <RCCEx_PLL3_Config>
 8002b90:	2800      	cmp	r0, #0
 8002b92:	bf18      	it	ne
 8002b94:	2601      	movne	r6, #1
 8002b96:	4a38      	ldr	r2, [pc, #224]	; (8002c78 <HAL_RCCEx_PeriphCLKConfig+0x7c0>)
 8002b98:	f8d4 1094 	ldr.w	r1, [r4, #148]	; 0x94
 8002b9c:	6d93      	ldr	r3, [r2, #88]	; 0x58
 8002b9e:	f423 7340 	bic.w	r3, r3, #768	; 0x300
 8002ba2:	430b      	orrs	r3, r1
 8002ba4:	6593      	str	r3, [r2, #88]	; 0x58
 8002ba6:	6823      	ldr	r3, [r4, #0]
 8002ba8:	0318      	lsls	r0, r3, #12
 8002baa:	d517      	bpl.n	8002bdc <HAL_RCCEx_PeriphCLKConfig+0x724>
 8002bac:	f8d4 10a0 	ldr.w	r1, [r4, #160]	; 0xa0
 8002bb0:	f5b1 3f80 	cmp.w	r1, #65536	; 0x10000
 8002bb4:	d048      	beq.n	8002c48 <HAL_RCCEx_PeriphCLKConfig+0x790>
 8002bb6:	f5b1 3f00 	cmp.w	r1, #131072	; 0x20000
 8002bba:	d005      	beq.n	8002bc8 <HAL_RCCEx_PeriphCLKConfig+0x710>
 8002bbc:	2900      	cmp	r1, #0
 8002bbe:	d149      	bne.n	8002c54 <HAL_RCCEx_PeriphCLKConfig+0x79c>
 8002bc0:	1d20      	adds	r0, r4, #4
 8002bc2:	f7ff fb89 	bl	80022d8 <RCCEx_PLL2_Config>
 8002bc6:	4605      	mov	r5, r0
 8002bc8:	2d00      	cmp	r5, #0
 8002bca:	d146      	bne.n	8002c5a <HAL_RCCEx_PeriphCLKConfig+0x7a2>
 8002bcc:	4a2a      	ldr	r2, [pc, #168]	; (8002c78 <HAL_RCCEx_PeriphCLKConfig+0x7c0>)
 8002bce:	f8d4 10a0 	ldr.w	r1, [r4, #160]	; 0xa0
 8002bd2:	6d93      	ldr	r3, [r2, #88]	; 0x58
 8002bd4:	f423 3340 	bic.w	r3, r3, #196608	; 0x30000
 8002bd8:	430b      	orrs	r3, r1
 8002bda:	6593      	str	r3, [r2, #88]	; 0x58
 8002bdc:	6823      	ldr	r3, [r4, #0]
 8002bde:	0359      	lsls	r1, r3, #13
 8002be0:	d518      	bpl.n	8002c14 <HAL_RCCEx_PeriphCLKConfig+0x75c>
 8002be2:	f8d4 3084 	ldr.w	r3, [r4, #132]	; 0x84
 8002be6:	f5b3 1f00 	cmp.w	r3, #2097152	; 0x200000
 8002bea:	d038      	beq.n	8002c5e <HAL_RCCEx_PeriphCLKConfig+0x7a6>
 8002bec:	f5b3 1f40 	cmp.w	r3, #3145728	; 0x300000
 8002bf0:	d007      	beq.n	8002c02 <HAL_RCCEx_PeriphCLKConfig+0x74a>
 8002bf2:	f5b3 1f80 	cmp.w	r3, #1048576	; 0x100000
 8002bf6:	d139      	bne.n	8002c6c <HAL_RCCEx_PeriphCLKConfig+0x7b4>
 8002bf8:	4a1f      	ldr	r2, [pc, #124]	; (8002c78 <HAL_RCCEx_PeriphCLKConfig+0x7c0>)
 8002bfa:	6ad3      	ldr	r3, [r2, #44]	; 0x2c
 8002bfc:	f443 3300 	orr.w	r3, r3, #131072	; 0x20000
 8002c00:	62d3      	str	r3, [r2, #44]	; 0x2c
 8002c02:	bbb5      	cbnz	r5, 8002c72 <HAL_RCCEx_PeriphCLKConfig+0x7ba>
 8002c04:	4a1c      	ldr	r2, [pc, #112]	; (8002c78 <HAL_RCCEx_PeriphCLKConfig+0x7c0>)
 8002c06:	f8d4 1084 	ldr.w	r1, [r4, #132]	; 0x84
 8002c0a:	6d53      	ldr	r3, [r2, #84]	; 0x54
 8002c0c:	f423 1340 	bic.w	r3, r3, #3145728	; 0x300000
 8002c10:	430b      	orrs	r3, r1
 8002c12:	6553      	str	r3, [r2, #84]	; 0x54
 8002c14:	6823      	ldr	r3, [r4, #0]
 8002c16:	03da      	lsls	r2, r3, #15
 8002c18:	d53e      	bpl.n	8002c98 <HAL_RCCEx_PeriphCLKConfig+0x7e0>
 8002c1a:	6ce3      	ldr	r3, [r4, #76]	; 0x4c
 8002c1c:	b373      	cbz	r3, 8002c7c <HAL_RCCEx_PeriphCLKConfig+0x7c4>
 8002c1e:	f5b3 3f80 	cmp.w	r3, #65536	; 0x10000
 8002c22:	f000 808c 	beq.w	8002d3e <HAL_RCCEx_PeriphCLKConfig+0x886>
 8002c26:	2601      	movs	r6, #1
 8002c28:	4635      	mov	r5, r6
 8002c2a:	e035      	b.n	8002c98 <HAL_RCCEx_PeriphCLKConfig+0x7e0>
 8002c2c:	2100      	movs	r1, #0
 8002c2e:	1d20      	adds	r0, r4, #4
 8002c30:	f7ff fb52 	bl	80022d8 <RCCEx_PLL2_Config>
 8002c34:	4605      	mov	r5, r0
 8002c36:	e77b      	b.n	8002b30 <HAL_RCCEx_PeriphCLKConfig+0x678>
 8002c38:	2102      	movs	r1, #2
 8002c3a:	f104 0024 	add.w	r0, r4, #36	; 0x24
 8002c3e:	f7ff fbc3 	bl	80023c8 <RCCEx_PLL3_Config>
 8002c42:	e7f7      	b.n	8002c34 <HAL_RCCEx_PeriphCLKConfig+0x77c>
 8002c44:	462e      	mov	r6, r5
 8002c46:	e77e      	b.n	8002b46 <HAL_RCCEx_PeriphCLKConfig+0x68e>
 8002c48:	2102      	movs	r1, #2
 8002c4a:	f104 0024 	add.w	r0, r4, #36	; 0x24
 8002c4e:	f7ff fbbb 	bl	80023c8 <RCCEx_PLL3_Config>
 8002c52:	e7b8      	b.n	8002bc6 <HAL_RCCEx_PeriphCLKConfig+0x70e>
 8002c54:	2601      	movs	r6, #1
 8002c56:	4635      	mov	r5, r6
 8002c58:	e7c0      	b.n	8002bdc <HAL_RCCEx_PeriphCLKConfig+0x724>
 8002c5a:	462e      	mov	r6, r5
 8002c5c:	e7be      	b.n	8002bdc <HAL_RCCEx_PeriphCLKConfig+0x724>
 8002c5e:	2101      	movs	r1, #1
 8002c60:	f104 0024 	add.w	r0, r4, #36	; 0x24
 8002c64:	f7ff fbb0 	bl	80023c8 <RCCEx_PLL3_Config>
 8002c68:	4605      	mov	r5, r0
 8002c6a:	e7ca      	b.n	8002c02 <HAL_RCCEx_PeriphCLKConfig+0x74a>
 8002c6c:	2601      	movs	r6, #1
 8002c6e:	4635      	mov	r5, r6
 8002c70:	e7d0      	b.n	8002c14 <HAL_RCCEx_PeriphCLKConfig+0x75c>
 8002c72:	462e      	mov	r6, r5
 8002c74:	e7ce      	b.n	8002c14 <HAL_RCCEx_PeriphCLKConfig+0x75c>
 8002c76:	bf00      	nop
 8002c78:	58024400 	.word	0x58024400
 8002c7c:	4a3c      	ldr	r2, [pc, #240]	; (8002d70 <HAL_RCCEx_PeriphCLKConfig+0x8b8>)
 8002c7e:	6ad3      	ldr	r3, [r2, #44]	; 0x2c
 8002c80:	f443 3300 	orr.w	r3, r3, #131072	; 0x20000
 8002c84:	62d3      	str	r3, [r2, #44]	; 0x2c
 8002c86:	2d00      	cmp	r5, #0
 8002c88:	d15f      	bne.n	8002d4a <HAL_RCCEx_PeriphCLKConfig+0x892>
 8002c8a:	4a39      	ldr	r2, [pc, #228]	; (8002d70 <HAL_RCCEx_PeriphCLKConfig+0x8b8>)
 8002c8c:	6ce1      	ldr	r1, [r4, #76]	; 0x4c
 8002c8e:	6cd3      	ldr	r3, [r2, #76]	; 0x4c
 8002c90:	f423 3380 	bic.w	r3, r3, #65536	; 0x10000
 8002c94:	430b      	orrs	r3, r1
 8002c96:	64d3      	str	r3, [r2, #76]	; 0x4c
 8002c98:	6823      	ldr	r3, [r4, #0]
 8002c9a:	009b      	lsls	r3, r3, #2
 8002c9c:	d507      	bpl.n	8002cae <HAL_RCCEx_PeriphCLKConfig+0x7f6>
 8002c9e:	2102      	movs	r1, #2
 8002ca0:	f104 0024 	add.w	r0, r4, #36	; 0x24
 8002ca4:	f7ff fb90 	bl	80023c8 <RCCEx_PLL3_Config>
 8002ca8:	2800      	cmp	r0, #0
 8002caa:	bf18      	it	ne
 8002cac:	2601      	movne	r6, #1
 8002cae:	6823      	ldr	r3, [r4, #0]
 8002cb0:	039f      	lsls	r7, r3, #14
 8002cb2:	d50e      	bpl.n	8002cd2 <HAL_RCCEx_PeriphCLKConfig+0x81a>
 8002cb4:	6fe1      	ldr	r1, [r4, #124]	; 0x7c
 8002cb6:	f5b1 7f80 	cmp.w	r1, #256	; 0x100
 8002cba:	d050      	beq.n	8002d5e <HAL_RCCEx_PeriphCLKConfig+0x8a6>
 8002cbc:	d847      	bhi.n	8002d4e <HAL_RCCEx_PeriphCLKConfig+0x896>
 8002cbe:	2900      	cmp	r1, #0
 8002cc0:	d14b      	bne.n	8002d5a <HAL_RCCEx_PeriphCLKConfig+0x8a2>
 8002cc2:	2d00      	cmp	r5, #0
 8002cc4:	d151      	bne.n	8002d6a <HAL_RCCEx_PeriphCLKConfig+0x8b2>
 8002cc6:	482a      	ldr	r0, [pc, #168]	; (8002d70 <HAL_RCCEx_PeriphCLKConfig+0x8b8>)
 8002cc8:	6d42      	ldr	r2, [r0, #84]	; 0x54
 8002cca:	f422 7240 	bic.w	r2, r2, #768	; 0x300
 8002cce:	430a      	orrs	r2, r1
 8002cd0:	6542      	str	r2, [r0, #84]	; 0x54
 8002cd2:	02dd      	lsls	r5, r3, #11
 8002cd4:	d506      	bpl.n	8002ce4 <HAL_RCCEx_PeriphCLKConfig+0x82c>
 8002cd6:	4926      	ldr	r1, [pc, #152]	; (8002d70 <HAL_RCCEx_PeriphCLKConfig+0x8b8>)
 8002cd8:	6f20      	ldr	r0, [r4, #112]	; 0x70
 8002cda:	6d0a      	ldr	r2, [r1, #80]	; 0x50
 8002cdc:	f022 4200 	bic.w	r2, r2, #2147483648	; 0x80000000
 8002ce0:	4302      	orrs	r2, r0
 8002ce2:	650a      	str	r2, [r1, #80]	; 0x50
 8002ce4:	00d8      	lsls	r0, r3, #3
 8002ce6:	d507      	bpl.n	8002cf8 <HAL_RCCEx_PeriphCLKConfig+0x840>
 8002ce8:	4921      	ldr	r1, [pc, #132]	; (8002d70 <HAL_RCCEx_PeriphCLKConfig+0x8b8>)
 8002cea:	f8d4 00b4 	ldr.w	r0, [r4, #180]	; 0xb4
 8002cee:	690a      	ldr	r2, [r1, #16]
 8002cf0:	f422 4280 	bic.w	r2, r2, #16384	; 0x4000
 8002cf4:	4302      	orrs	r2, r0
 8002cf6:	610a      	str	r2, [r1, #16]
 8002cf8:	0299      	lsls	r1, r3, #10
 8002cfa:	d506      	bpl.n	8002d0a <HAL_RCCEx_PeriphCLKConfig+0x852>
 8002cfc:	491c      	ldr	r1, [pc, #112]	; (8002d70 <HAL_RCCEx_PeriphCLKConfig+0x8b8>)
 8002cfe:	6ea0      	ldr	r0, [r4, #104]	; 0x68
 8002d00:	6d0a      	ldr	r2, [r1, #80]	; 0x50
 8002d02:	f022 7280 	bic.w	r2, r2, #16777216	; 0x1000000
 8002d06:	4302      	orrs	r2, r0
 8002d08:	650a      	str	r2, [r1, #80]	; 0x50
 8002d0a:	005a      	lsls	r2, r3, #1
 8002d0c:	d509      	bpl.n	8002d22 <HAL_RCCEx_PeriphCLKConfig+0x86a>
 8002d0e:	4a18      	ldr	r2, [pc, #96]	; (8002d70 <HAL_RCCEx_PeriphCLKConfig+0x8b8>)
 8002d10:	6911      	ldr	r1, [r2, #16]
 8002d12:	f421 4100 	bic.w	r1, r1, #32768	; 0x8000
 8002d16:	6111      	str	r1, [r2, #16]
 8002d18:	6911      	ldr	r1, [r2, #16]
 8002d1a:	f8d4 00b8 	ldr.w	r0, [r4, #184]	; 0xb8
 8002d1e:	4301      	orrs	r1, r0
 8002d20:	6111      	str	r1, [r2, #16]
 8002d22:	2b00      	cmp	r3, #0
 8002d24:	da06      	bge.n	8002d34 <HAL_RCCEx_PeriphCLKConfig+0x87c>
 8002d26:	4a12      	ldr	r2, [pc, #72]	; (8002d70 <HAL_RCCEx_PeriphCLKConfig+0x8b8>)
 8002d28:	6d21      	ldr	r1, [r4, #80]	; 0x50
 8002d2a:	6cd3      	ldr	r3, [r2, #76]	; 0x4c
 8002d2c:	f023 5340 	bic.w	r3, r3, #805306368	; 0x30000000
 8002d30:	430b      	orrs	r3, r1
 8002d32:	64d3      	str	r3, [r2, #76]	; 0x4c
 8002d34:	1c30      	adds	r0, r6, #0
 8002d36:	bf18      	it	ne
 8002d38:	2001      	movne	r0, #1
 8002d3a:	e8bd 83f8 	ldmia.w	sp!, {r3, r4, r5, r6, r7, r8, r9, pc}
 8002d3e:	2102      	movs	r1, #2
 8002d40:	1d20      	adds	r0, r4, #4
 8002d42:	f7ff fac9 	bl	80022d8 <RCCEx_PLL2_Config>
 8002d46:	4605      	mov	r5, r0
 8002d48:	e79d      	b.n	8002c86 <HAL_RCCEx_PeriphCLKConfig+0x7ce>
 8002d4a:	462e      	mov	r6, r5
 8002d4c:	e7a4      	b.n	8002c98 <HAL_RCCEx_PeriphCLKConfig+0x7e0>
 8002d4e:	f5b1 7f00 	cmp.w	r1, #512	; 0x200
 8002d52:	d0b6      	beq.n	8002cc2 <HAL_RCCEx_PeriphCLKConfig+0x80a>
 8002d54:	f5b1 7f40 	cmp.w	r1, #768	; 0x300
 8002d58:	d0b3      	beq.n	8002cc2 <HAL_RCCEx_PeriphCLKConfig+0x80a>
 8002d5a:	2601      	movs	r6, #1
 8002d5c:	e7b9      	b.n	8002cd2 <HAL_RCCEx_PeriphCLKConfig+0x81a>
 8002d5e:	4804      	ldr	r0, [pc, #16]	; (8002d70 <HAL_RCCEx_PeriphCLKConfig+0x8b8>)
 8002d60:	6ac2      	ldr	r2, [r0, #44]	; 0x2c
 8002d62:	f442 3200 	orr.w	r2, r2, #131072	; 0x20000
 8002d66:	62c2      	str	r2, [r0, #44]	; 0x2c
 8002d68:	e7ab      	b.n	8002cc2 <HAL_RCCEx_PeriphCLKConfig+0x80a>
 8002d6a:	462e      	mov	r6, r5
 8002d6c:	e7b1      	b.n	8002cd2 <HAL_RCCEx_PeriphCLKConfig+0x81a>
 8002d6e:	bf00      	nop
 8002d70:	58024400 	.word	0x58024400

08002d74 <HAL_RCCEx_GetD3PCLK1Freq>:
 8002d74:	b508      	push	{r3, lr}
 8002d76:	f7ff fa69 	bl	800224c <HAL_RCC_GetHCLKFreq>
 8002d7a:	4b05      	ldr	r3, [pc, #20]	; (8002d90 <HAL_RCCEx_GetD3PCLK1Freq+0x1c>)
 8002d7c:	4a05      	ldr	r2, [pc, #20]	; (8002d94 <HAL_RCCEx_GetD3PCLK1Freq+0x20>)
 8002d7e:	6a1b      	ldr	r3, [r3, #32]
 8002d80:	f3c3 1302 	ubfx	r3, r3, #4, #3
 8002d84:	5cd3      	ldrb	r3, [r2, r3]
 8002d86:	f003 031f 	and.w	r3, r3, #31
 8002d8a:	40d8      	lsrs	r0, r3
 8002d8c:	bd08      	pop	{r3, pc}
 8002d8e:	bf00      	nop
 8002d90:	58024400 	.word	0x58024400
 8002d94:	08004a7c 	.word	0x08004a7c

08002d98 <HAL_RCCEx_GetPLL2ClockFreq>:
 8002d98:	494d      	ldr	r1, [pc, #308]	; (8002ed0 <HAL_RCCEx_GetPLL2ClockFreq+0x138>)
 8002d9a:	b530      	push	{r4, r5, lr}
 8002d9c:	6a8c      	ldr	r4, [r1, #40]	; 0x28
 8002d9e:	6a8b      	ldr	r3, [r1, #40]	; 0x28
 8002da0:	6aca      	ldr	r2, [r1, #44]	; 0x2c
 8002da2:	f3c3 3305 	ubfx	r3, r3, #12, #6
 8002da6:	6bcd      	ldr	r5, [r1, #60]	; 0x3c
 8002da8:	2b00      	cmp	r3, #0
 8002daa:	f000 808c 	beq.w	8002ec6 <HAL_RCCEx_GetPLL2ClockFreq+0x12e>
 8002dae:	ee07 3a90 	vmov	s15, r3
 8002db2:	f3c5 05cc 	ubfx	r5, r5, #3, #13
 8002db6:	f3c2 1300 	ubfx	r3, r2, #4, #1
 8002dba:	eeb7 6a00 	vmov.f32	s12, #112	; 0x3f800000  1.0
 8002dbe:	eef8 6ae7 	vcvt.f32.s32	s13, s15
 8002dc2:	436b      	muls	r3, r5
 8002dc4:	ee07 3a90 	vmov	s15, r3
 8002dc8:	f004 0303 	and.w	r3, r4, #3
 8002dcc:	2b01      	cmp	r3, #1
 8002dce:	eefa 7ae9 	vcvt.f32.s32	s15, s15, #13
 8002dd2:	d002      	beq.n	8002dda <HAL_RCCEx_GetPLL2ClockFreq+0x42>
 8002dd4:	d30f      	bcc.n	8002df6 <HAL_RCCEx_GetPLL2ClockFreq+0x5e>
 8002dd6:	2b02      	cmp	r3, #2
 8002dd8:	d067      	beq.n	8002eaa <HAL_RCCEx_GetPLL2ClockFreq+0x112>
 8002dda:	6b8b      	ldr	r3, [r1, #56]	; 0x38
 8002ddc:	eddf 5a3d 	vldr	s11, [pc, #244]	; 8002ed4 <HAL_RCCEx_GetPLL2ClockFreq+0x13c>
 8002de0:	f3c3 0308 	ubfx	r3, r3, #0, #9
 8002de4:	ee07 3a10 	vmov	s14, r3
 8002de8:	eeb8 7ac7 	vcvt.f32.s32	s14, s14
 8002dec:	ee77 7a27 	vadd.f32	s15, s14, s15
 8002df0:	ee77 7a86 	vadd.f32	s15, s15, s12
 8002df4:	e056      	b.n	8002ea4 <HAL_RCCEx_GetPLL2ClockFreq+0x10c>
 8002df6:	680b      	ldr	r3, [r1, #0]
 8002df8:	069b      	lsls	r3, r3, #26
 8002dfa:	d546      	bpl.n	8002e8a <HAL_RCCEx_GetPLL2ClockFreq+0xf2>
 8002dfc:	680a      	ldr	r2, [r1, #0]
 8002dfe:	6b8b      	ldr	r3, [r1, #56]	; 0x38
 8002e00:	f3c2 01c1 	ubfx	r1, r2, #3, #2
 8002e04:	4a34      	ldr	r2, [pc, #208]	; (8002ed8 <HAL_RCCEx_GetPLL2ClockFreq+0x140>)
 8002e06:	f3c3 0308 	ubfx	r3, r3, #0, #9
 8002e0a:	40ca      	lsrs	r2, r1
 8002e0c:	ee07 2a10 	vmov	s14, r2
 8002e10:	eef8 5ac7 	vcvt.f32.s32	s11, s14
 8002e14:	ee85 7aa6 	vdiv.f32	s14, s11, s13
 8002e18:	ee06 3a90 	vmov	s13, r3
 8002e1c:	eef8 6ae6 	vcvt.f32.s32	s13, s13
 8002e20:	ee76 7aa7 	vadd.f32	s15, s13, s15
 8002e24:	ee77 7a86 	vadd.f32	s15, s15, s12
 8002e28:	4a29      	ldr	r2, [pc, #164]	; (8002ed0 <HAL_RCCEx_GetPLL2ClockFreq+0x138>)
 8002e2a:	ee67 7a87 	vmul.f32	s15, s15, s14
 8002e2e:	6b93      	ldr	r3, [r2, #56]	; 0x38
 8002e30:	f3c3 2346 	ubfx	r3, r3, #9, #7
 8002e34:	ee07 3a10 	vmov	s14, r3
 8002e38:	eeb8 7ac7 	vcvt.f32.s32	s14, s14
 8002e3c:	ee37 7a06 	vadd.f32	s14, s14, s12
 8002e40:	eec7 6a87 	vdiv.f32	s13, s15, s14
 8002e44:	eefc 6ae6 	vcvt.u32.f32	s13, s13
 8002e48:	edc0 6a00 	vstr	s13, [r0]
 8002e4c:	6b93      	ldr	r3, [r2, #56]	; 0x38
 8002e4e:	f3c3 4306 	ubfx	r3, r3, #16, #7
 8002e52:	ee07 3a10 	vmov	s14, r3
 8002e56:	eeb8 7ac7 	vcvt.f32.s32	s14, s14
 8002e5a:	ee37 7a06 	vadd.f32	s14, s14, s12
 8002e5e:	eec7 6a87 	vdiv.f32	s13, s15, s14
 8002e62:	eefc 6ae6 	vcvt.u32.f32	s13, s13
 8002e66:	edc0 6a01 	vstr	s13, [r0, #4]
 8002e6a:	6b93      	ldr	r3, [r2, #56]	; 0x38
 8002e6c:	f3c3 6306 	ubfx	r3, r3, #24, #7
 8002e70:	ee07 3a10 	vmov	s14, r3
 8002e74:	eeb8 7ac7 	vcvt.f32.s32	s14, s14
 8002e78:	ee37 6a06 	vadd.f32	s12, s14, s12
 8002e7c:	ee87 7a86 	vdiv.f32	s14, s15, s12
 8002e80:	eebc 7ac7 	vcvt.u32.f32	s14, s14
 8002e84:	ed80 7a02 	vstr	s14, [r0, #8]
 8002e88:	bd30      	pop	{r4, r5, pc}
 8002e8a:	6b8b      	ldr	r3, [r1, #56]	; 0x38
 8002e8c:	eddf 5a13 	vldr	s11, [pc, #76]	; 8002edc <HAL_RCCEx_GetPLL2ClockFreq+0x144>
 8002e90:	f3c3 0308 	ubfx	r3, r3, #0, #9
 8002e94:	ee07 3a10 	vmov	s14, r3
 8002e98:	eeb8 7ac7 	vcvt.f32.s32	s14, s14
 8002e9c:	ee77 7a27 	vadd.f32	s15, s14, s15
 8002ea0:	ee77 7a86 	vadd.f32	s15, s15, s12
 8002ea4:	ee85 7aa6 	vdiv.f32	s14, s11, s13
 8002ea8:	e7be      	b.n	8002e28 <HAL_RCCEx_GetPLL2ClockFreq+0x90>
 8002eaa:	6b8b      	ldr	r3, [r1, #56]	; 0x38
 8002eac:	eddf 5a0c 	vldr	s11, [pc, #48]	; 8002ee0 <HAL_RCCEx_GetPLL2ClockFreq+0x148>
 8002eb0:	f3c3 0308 	ubfx	r3, r3, #0, #9
 8002eb4:	ee07 3a10 	vmov	s14, r3
 8002eb8:	eeb8 7ac7 	vcvt.f32.s32	s14, s14
 8002ebc:	ee77 7a27 	vadd.f32	s15, s14, s15
 8002ec0:	ee77 7a86 	vadd.f32	s15, s15, s12
 8002ec4:	e7ee      	b.n	8002ea4 <HAL_RCCEx_GetPLL2ClockFreq+0x10c>
 8002ec6:	e9c0 3300 	strd	r3, r3, [r0]
 8002eca:	6083      	str	r3, [r0, #8]
 8002ecc:	e7dc      	b.n	8002e88 <HAL_RCCEx_GetPLL2ClockFreq+0xf0>
 8002ece:	bf00      	nop
 8002ed0:	58024400 	.word	0x58024400
 8002ed4:	4a742400 	.word	0x4a742400
 8002ed8:	03d09000 	.word	0x03d09000
 8002edc:	4c742400 	.word	0x4c742400
 8002ee0:	4af42400 	.word	0x4af42400

08002ee4 <HAL_RCCEx_GetPLL3ClockFreq>:
 8002ee4:	494d      	ldr	r1, [pc, #308]	; (800301c <HAL_RCCEx_GetPLL3ClockFreq+0x138>)
 8002ee6:	b530      	push	{r4, r5, lr}
 8002ee8:	6a8c      	ldr	r4, [r1, #40]	; 0x28
 8002eea:	6a8b      	ldr	r3, [r1, #40]	; 0x28
 8002eec:	6aca      	ldr	r2, [r1, #44]	; 0x2c
 8002eee:	f3c3 5305 	ubfx	r3, r3, #20, #6
 8002ef2:	6c4d      	ldr	r5, [r1, #68]	; 0x44
 8002ef4:	2b00      	cmp	r3, #0
 8002ef6:	f000 808c 	beq.w	8003012 <HAL_RCCEx_GetPLL3ClockFreq+0x12e>
 8002efa:	ee07 3a90 	vmov	s15, r3
 8002efe:	f3c5 05cc 	ubfx	r5, r5, #3, #13
 8002f02:	f3c2 2300 	ubfx	r3, r2, #8, #1
 8002f06:	eeb7 6a00 	vmov.f32	s12, #112	; 0x3f800000  1.0
 8002f0a:	eef8 6ae7 	vcvt.f32.s32	s13, s15
 8002f0e:	436b      	muls	r3, r5
 8002f10:	ee07 3a90 	vmov	s15, r3
 8002f14:	f004 0303 	and.w	r3, r4, #3
 8002f18:	2b01      	cmp	r3, #1
 8002f1a:	eefa 7ae9 	vcvt.f32.s32	s15, s15, #13
 8002f1e:	d002      	beq.n	8002f26 <HAL_RCCEx_GetPLL3ClockFreq+0x42>
 8002f20:	d30f      	bcc.n	8002f42 <HAL_RCCEx_GetPLL3ClockFreq+0x5e>
 8002f22:	2b02      	cmp	r3, #2
 8002f24:	d067      	beq.n	8002ff6 <HAL_RCCEx_GetPLL3ClockFreq+0x112>
 8002f26:	6c0b      	ldr	r3, [r1, #64]	; 0x40
 8002f28:	eddf 5a3d 	vldr	s11, [pc, #244]	; 8003020 <HAL_RCCEx_GetPLL3ClockFreq+0x13c>
 8002f2c:	f3c3 0308 	ubfx	r3, r3, #0, #9
 8002f30:	ee07 3a10 	vmov	s14, r3
 8002f34:	eeb8 7ac7 	vcvt.f32.s32	s14, s14
 8002f38:	ee77 7a27 	vadd.f32	s15, s14, s15
 8002f3c:	ee77 7a86 	vadd.f32	s15, s15, s12
 8002f40:	e056      	b.n	8002ff0 <HAL_RCCEx_GetPLL3ClockFreq+0x10c>
 8002f42:	680b      	ldr	r3, [r1, #0]
 8002f44:	069b      	lsls	r3, r3, #26
 8002f46:	d546      	bpl.n	8002fd6 <HAL_RCCEx_GetPLL3ClockFreq+0xf2>
 8002f48:	680a      	ldr	r2, [r1, #0]
 8002f4a:	6c0b      	ldr	r3, [r1, #64]	; 0x40
 8002f4c:	f3c2 01c1 	ubfx	r1, r2, #3, #2
 8002f50:	4a34      	ldr	r2, [pc, #208]	; (8003024 <HAL_RCCEx_GetPLL3ClockFreq+0x140>)
 8002f52:	f3c3 0308 	ubfx	r3, r3, #0, #9
 8002f56:	40ca      	lsrs	r2, r1
 8002f58:	ee07 2a10 	vmov	s14, r2
 8002f5c:	eef8 5ac7 	vcvt.f32.s32	s11, s14
 8002f60:	ee85 7aa6 	vdiv.f32	s14, s11, s13
 8002f64:	ee06 3a90 	vmov	s13, r3
 8002f68:	eef8 6ae6 	vcvt.f32.s32	s13, s13
 8002f6c:	ee76 7aa7 	vadd.f32	s15, s13, s15
 8002f70:	ee77 7a86 	vadd.f32	s15, s15, s12
 8002f74:	4a29      	ldr	r2, [pc, #164]	; (800301c <HAL_RCCEx_GetPLL3ClockFreq+0x138>)
 8002f76:	ee67 7a87 	vmul.f32	s15, s15, s14
 8002f7a:	6c13      	ldr	r3, [r2, #64]	; 0x40
 8002f7c:	f3c3 2346 	ubfx	r3, r3, #9, #7
 8002f80:	ee07 3a10 	vmov	s14, r3
 8002f84:	eeb8 7ac7 	vcvt.f32.s32	s14, s14
 8002f88:	ee37 7a06 	vadd.f32	s14, s14, s12
 8002f8c:	eec7 6a87 	vdiv.f32	s13, s15, s14
 8002f90:	eefc 6ae6 	vcvt.u32.f32	s13, s13
 8002f94:	edc0 6a00 	vstr	s13, [r0]
 8002f98:	6c13      	ldr	r3, [r2, #64]	; 0x40
 8002f9a:	f3c3 4306 	ubfx	r3, r3, #16, #7
 8002f9e:	ee07 3a10 	vmov	s14, r3
 8002fa2:	eeb8 7ac7 	vcvt.f32.s32	s14, s14
 8002fa6:	ee37 7a06 	vadd.f32	s14, s14, s12
 8002faa:	eec7 6a87 	vdiv.f32	s13, s15, s14
 8002fae:	eefc 6ae6 	vcvt.u32.f32	s13, s13
 8002fb2:	edc0 6a01 	vstr	s13, [r0, #4]
 8002fb6:	6c13      	ldr	r3, [r2, #64]	; 0x40
 8002fb8:	f3c3 6306 	ubfx	r3, r3, #24, #7
 8002fbc:	ee07 3a10 	vmov	s14, r3
 8002fc0:	eeb8 7ac7 	vcvt.f32.s32	s14, s14
 8002fc4:	ee37 6a06 	vadd.f32	s12, s14, s12
 8002fc8:	ee87 7a86 	vdiv.f32	s14, s15, s12
 8002fcc:	eebc 7ac7 	vcvt.u32.f32	s14, s14
 8002fd0:	ed80 7a02 	vstr	s14, [r0, #8]
 8002fd4:	bd30      	pop	{r4, r5, pc}
 8002fd6:	6c0b      	ldr	r3, [r1, #64]	; 0x40
 8002fd8:	eddf 5a13 	vldr	s11, [pc, #76]	; 8003028 <HAL_RCCEx_GetPLL3ClockFreq+0x144>
 8002fdc:	f3c3 0308 	ubfx	r3, r3, #0, #9
 8002fe0:	ee07 3a10 	vmov	s14, r3
 8002fe4:	eeb8 7ac7 	vcvt.f32.s32	s14, s14
 8002fe8:	ee77 7a27 	vadd.f32	s15, s14, s15
 8002fec:	ee77 7a86 	vadd.f32	s15, s15, s12
 8002ff0:	ee85 7aa6 	vdiv.f32	s14, s11, s13
 8002ff4:	e7be      	b.n	8002f74 <HAL_RCCEx_GetPLL3ClockFreq+0x90>
 8002ff6:	6c0b      	ldr	r3, [r1, #64]	; 0x40
 8002ff8:	eddf 5a0c 	vldr	s11, [pc, #48]	; 800302c <HAL_RCCEx_GetPLL3ClockFreq+0x148>
 8002ffc:	f3c3 0308 	ubfx	r3, r3, #0, #9
 8003000:	ee07 3a10 	vmov	s14, r3
 8003004:	eeb8 7ac7 	vcvt.f32.s32	s14, s14
 8003008:	ee77 7a27 	vadd.f32	s15, s14, s15
 800300c:	ee77 7a86 	vadd.f32	s15, s15, s12
 8003010:	e7ee      	b.n	8002ff0 <HAL_RCCEx_GetPLL3ClockFreq+0x10c>
 8003012:	e9c0 3300 	strd	r3, r3, [r0]
 8003016:	6083      	str	r3, [r0, #8]
 8003018:	e7dc      	b.n	8002fd4 <HAL_RCCEx_GetPLL3ClockFreq+0xf0>
 800301a:	bf00      	nop
 800301c:	58024400 	.word	0x58024400
 8003020:	4a742400 	.word	0x4a742400
 8003024:	03d09000 	.word	0x03d09000
 8003028:	4c742400 	.word	0x4c742400
 800302c:	4af42400 	.word	0x4af42400

08003030 <UART_EndRxTransfer>:
 8003030:	6802      	ldr	r2, [r0, #0]
 8003032:	6813      	ldr	r3, [r2, #0]
 8003034:	f423 7390 	bic.w	r3, r3, #288	; 0x120
 8003038:	6013      	str	r3, [r2, #0]
 800303a:	6893      	ldr	r3, [r2, #8]
 800303c:	f023 5380 	bic.w	r3, r3, #268435456	; 0x10000000
 8003040:	f023 0301 	bic.w	r3, r3, #1
 8003044:	6093      	str	r3, [r2, #8]
 8003046:	2320      	movs	r3, #32
 8003048:	f8c0 3084 	str.w	r3, [r0, #132]	; 0x84
 800304c:	2300      	movs	r3, #0
 800304e:	66c3      	str	r3, [r0, #108]	; 0x6c
 8003050:	4770      	bx	lr

08003052 <HAL_UART_TxCpltCallback>:
 8003052:	4770      	bx	lr

08003054 <HAL_UART_ErrorCallback>:
 8003054:	4770      	bx	lr
	...

08003058 <HAL_UART_IRQHandler>:
 8003058:	6802      	ldr	r2, [r0, #0]
 800305a:	b570      	push	{r4, r5, r6, lr}
 800305c:	69d3      	ldr	r3, [r2, #28]
 800305e:	f640 050f 	movw	r5, #2063	; 0x80f
 8003062:	4604      	mov	r4, r0
 8003064:	6811      	ldr	r1, [r2, #0]
 8003066:	422b      	tst	r3, r5
 8003068:	6890      	ldr	r0, [r2, #8]
 800306a:	d10b      	bne.n	8003084 <HAL_UART_IRQHandler+0x2c>
 800306c:	069e      	lsls	r6, r3, #26
 800306e:	f140 8083 	bpl.w	8003178 <HAL_UART_IRQHandler+0x120>
 8003072:	068d      	lsls	r5, r1, #26
 8003074:	d401      	bmi.n	800307a <HAL_UART_IRQHandler+0x22>
 8003076:	00c6      	lsls	r6, r0, #3
 8003078:	d57e      	bpl.n	8003178 <HAL_UART_IRQHandler+0x120>
 800307a:	6ee3      	ldr	r3, [r4, #108]	; 0x6c
 800307c:	2b00      	cmp	r3, #0
 800307e:	d075      	beq.n	800316c <HAL_UART_IRQHandler+0x114>
 8003080:	4620      	mov	r0, r4
 8003082:	e06d      	b.n	8003160 <HAL_UART_IRQHandler+0x108>
 8003084:	4e58      	ldr	r6, [pc, #352]	; (80031e8 <HAL_UART_IRQHandler+0x190>)
 8003086:	4006      	ands	r6, r0
 8003088:	d102      	bne.n	8003090 <HAL_UART_IRQHandler+0x38>
 800308a:	4d58      	ldr	r5, [pc, #352]	; (80031ec <HAL_UART_IRQHandler+0x194>)
 800308c:	4229      	tst	r1, r5
 800308e:	d073      	beq.n	8003178 <HAL_UART_IRQHandler+0x120>
 8003090:	07dd      	lsls	r5, r3, #31
 8003092:	d509      	bpl.n	80030a8 <HAL_UART_IRQHandler+0x50>
 8003094:	05cd      	lsls	r5, r1, #23
 8003096:	d507      	bpl.n	80030a8 <HAL_UART_IRQHandler+0x50>
 8003098:	2501      	movs	r5, #1
 800309a:	6215      	str	r5, [r2, #32]
 800309c:	f8d4 5088 	ldr.w	r5, [r4, #136]	; 0x88
 80030a0:	f045 0501 	orr.w	r5, r5, #1
 80030a4:	f8c4 5088 	str.w	r5, [r4, #136]	; 0x88
 80030a8:	079d      	lsls	r5, r3, #30
 80030aa:	d509      	bpl.n	80030c0 <HAL_UART_IRQHandler+0x68>
 80030ac:	07c5      	lsls	r5, r0, #31
 80030ae:	d507      	bpl.n	80030c0 <HAL_UART_IRQHandler+0x68>
 80030b0:	2502      	movs	r5, #2
 80030b2:	6215      	str	r5, [r2, #32]
 80030b4:	f8d4 5088 	ldr.w	r5, [r4, #136]	; 0x88
 80030b8:	f045 0504 	orr.w	r5, r5, #4
 80030bc:	f8c4 5088 	str.w	r5, [r4, #136]	; 0x88
 80030c0:	075d      	lsls	r5, r3, #29
 80030c2:	d509      	bpl.n	80030d8 <HAL_UART_IRQHandler+0x80>
 80030c4:	07c5      	lsls	r5, r0, #31
 80030c6:	d507      	bpl.n	80030d8 <HAL_UART_IRQHandler+0x80>
 80030c8:	2504      	movs	r5, #4
 80030ca:	6215      	str	r5, [r2, #32]
 80030cc:	f8d4 5088 	ldr.w	r5, [r4, #136]	; 0x88
 80030d0:	f045 0502 	orr.w	r5, r5, #2
 80030d4:	f8c4 5088 	str.w	r5, [r4, #136]	; 0x88
 80030d8:	071d      	lsls	r5, r3, #28
 80030da:	d50a      	bpl.n	80030f2 <HAL_UART_IRQHandler+0x9a>
 80030dc:	068d      	lsls	r5, r1, #26
 80030de:	d400      	bmi.n	80030e2 <HAL_UART_IRQHandler+0x8a>
 80030e0:	b13e      	cbz	r6, 80030f2 <HAL_UART_IRQHandler+0x9a>
 80030e2:	2508      	movs	r5, #8
 80030e4:	6215      	str	r5, [r2, #32]
 80030e6:	f8d4 5088 	ldr.w	r5, [r4, #136]	; 0x88
 80030ea:	f045 0508 	orr.w	r5, r5, #8
 80030ee:	f8c4 5088 	str.w	r5, [r4, #136]	; 0x88
 80030f2:	051e      	lsls	r6, r3, #20
 80030f4:	d50a      	bpl.n	800310c <HAL_UART_IRQHandler+0xb4>
 80030f6:	014d      	lsls	r5, r1, #5
 80030f8:	d508      	bpl.n	800310c <HAL_UART_IRQHandler+0xb4>
 80030fa:	f44f 6500 	mov.w	r5, #2048	; 0x800
 80030fe:	6215      	str	r5, [r2, #32]
 8003100:	f8d4 2088 	ldr.w	r2, [r4, #136]	; 0x88
 8003104:	f042 0220 	orr.w	r2, r2, #32
 8003108:	f8c4 2088 	str.w	r2, [r4, #136]	; 0x88
 800310c:	f8d4 2088 	ldr.w	r2, [r4, #136]	; 0x88
 8003110:	b362      	cbz	r2, 800316c <HAL_UART_IRQHandler+0x114>
 8003112:	069e      	lsls	r6, r3, #26
 8003114:	d507      	bpl.n	8003126 <HAL_UART_IRQHandler+0xce>
 8003116:	068d      	lsls	r5, r1, #26
 8003118:	d401      	bmi.n	800311e <HAL_UART_IRQHandler+0xc6>
 800311a:	00c0      	lsls	r0, r0, #3
 800311c:	d503      	bpl.n	8003126 <HAL_UART_IRQHandler+0xce>
 800311e:	6ee3      	ldr	r3, [r4, #108]	; 0x6c
 8003120:	b10b      	cbz	r3, 8003126 <HAL_UART_IRQHandler+0xce>
 8003122:	4620      	mov	r0, r4
 8003124:	4798      	blx	r3
 8003126:	6822      	ldr	r2, [r4, #0]
 8003128:	4620      	mov	r0, r4
 800312a:	f8d4 5088 	ldr.w	r5, [r4, #136]	; 0x88
 800312e:	6892      	ldr	r2, [r2, #8]
 8003130:	0651      	lsls	r1, r2, #25
 8003132:	d402      	bmi.n	800313a <HAL_UART_IRQHandler+0xe2>
 8003134:	f015 0528 	ands.w	r5, r5, #40	; 0x28
 8003138:	d019      	beq.n	800316e <HAL_UART_IRQHandler+0x116>
 800313a:	f7ff ff79 	bl	8003030 <UART_EndRxTransfer>
 800313e:	6823      	ldr	r3, [r4, #0]
 8003140:	689a      	ldr	r2, [r3, #8]
 8003142:	0652      	lsls	r2, r2, #25
 8003144:	d50f      	bpl.n	8003166 <HAL_UART_IRQHandler+0x10e>
 8003146:	689a      	ldr	r2, [r3, #8]
 8003148:	6fa0      	ldr	r0, [r4, #120]	; 0x78
 800314a:	f022 0240 	bic.w	r2, r2, #64	; 0x40
 800314e:	609a      	str	r2, [r3, #8]
 8003150:	b148      	cbz	r0, 8003166 <HAL_UART_IRQHandler+0x10e>
 8003152:	4b27      	ldr	r3, [pc, #156]	; (80031f0 <HAL_UART_IRQHandler+0x198>)
 8003154:	6503      	str	r3, [r0, #80]	; 0x50
 8003156:	f7fd ff35 	bl	8000fc4 <HAL_DMA_Abort_IT>
 800315a:	b138      	cbz	r0, 800316c <HAL_UART_IRQHandler+0x114>
 800315c:	6fa0      	ldr	r0, [r4, #120]	; 0x78
 800315e:	6d03      	ldr	r3, [r0, #80]	; 0x50
 8003160:	e8bd 4070 	ldmia.w	sp!, {r4, r5, r6, lr}
 8003164:	4718      	bx	r3
 8003166:	4620      	mov	r0, r4
 8003168:	f7ff ff74 	bl	8003054 <HAL_UART_ErrorCallback>
 800316c:	bd70      	pop	{r4, r5, r6, pc}
 800316e:	f7ff ff71 	bl	8003054 <HAL_UART_ErrorCallback>
 8003172:	f8c4 5088 	str.w	r5, [r4, #136]	; 0x88
 8003176:	e7f9      	b.n	800316c <HAL_UART_IRQHandler+0x114>
 8003178:	02de      	lsls	r6, r3, #11
 800317a:	d509      	bpl.n	8003190 <HAL_UART_IRQHandler+0x138>
 800317c:	0245      	lsls	r5, r0, #9
 800317e:	d507      	bpl.n	8003190 <HAL_UART_IRQHandler+0x138>
 8003180:	f44f 1380 	mov.w	r3, #1048576	; 0x100000
 8003184:	4620      	mov	r0, r4
 8003186:	6213      	str	r3, [r2, #32]
 8003188:	e8bd 4070 	ldmia.w	sp!, {r4, r5, r6, lr}
 800318c:	f000 bb86 	b.w	800389c <HAL_UARTEx_WakeupCallback>
 8003190:	061e      	lsls	r6, r3, #24
 8003192:	d505      	bpl.n	80031a0 <HAL_UART_IRQHandler+0x148>
 8003194:	060d      	lsls	r5, r1, #24
 8003196:	d401      	bmi.n	800319c <HAL_UART_IRQHandler+0x144>
 8003198:	0200      	lsls	r0, r0, #8
 800319a:	d501      	bpl.n	80031a0 <HAL_UART_IRQHandler+0x148>
 800319c:	6f23      	ldr	r3, [r4, #112]	; 0x70
 800319e:	e76d      	b.n	800307c <HAL_UART_IRQHandler+0x24>
 80031a0:	065e      	lsls	r6, r3, #25
 80031a2:	d50e      	bpl.n	80031c2 <HAL_UART_IRQHandler+0x16a>
 80031a4:	064d      	lsls	r5, r1, #25
 80031a6:	d50c      	bpl.n	80031c2 <HAL_UART_IRQHandler+0x16a>
 80031a8:	6813      	ldr	r3, [r2, #0]
 80031aa:	4620      	mov	r0, r4
 80031ac:	f023 0340 	bic.w	r3, r3, #64	; 0x40
 80031b0:	6013      	str	r3, [r2, #0]
 80031b2:	2320      	movs	r3, #32
 80031b4:	f8c4 3080 	str.w	r3, [r4, #128]	; 0x80
 80031b8:	2300      	movs	r3, #0
 80031ba:	6723      	str	r3, [r4, #112]	; 0x70
 80031bc:	f7ff ff49 	bl	8003052 <HAL_UART_TxCpltCallback>
 80031c0:	e7d4      	b.n	800316c <HAL_UART_IRQHandler+0x114>
 80031c2:	0218      	lsls	r0, r3, #8
 80031c4:	d506      	bpl.n	80031d4 <HAL_UART_IRQHandler+0x17c>
 80031c6:	004a      	lsls	r2, r1, #1
 80031c8:	d504      	bpl.n	80031d4 <HAL_UART_IRQHandler+0x17c>
 80031ca:	4620      	mov	r0, r4
 80031cc:	e8bd 4070 	ldmia.w	sp!, {r4, r5, r6, lr}
 80031d0:	f000 bb66 	b.w	80038a0 <HAL_UARTEx_TxFifoEmptyCallback>
 80031d4:	01db      	lsls	r3, r3, #7
 80031d6:	d5c9      	bpl.n	800316c <HAL_UART_IRQHandler+0x114>
 80031d8:	2900      	cmp	r1, #0
 80031da:	dac7      	bge.n	800316c <HAL_UART_IRQHandler+0x114>
 80031dc:	4620      	mov	r0, r4
 80031de:	e8bd 4070 	ldmia.w	sp!, {r4, r5, r6, lr}
 80031e2:	f000 bb5c 	b.w	800389e <HAL_UARTEx_RxFifoFullCallback>
 80031e6:	bf00      	nop
 80031e8:	10000001 	.word	0x10000001
 80031ec:	04000120 	.word	0x04000120
 80031f0:	080031f5 	.word	0x080031f5

080031f4 <UART_DMAAbortOnError>:
 80031f4:	b508      	push	{r3, lr}
 80031f6:	6b80      	ldr	r0, [r0, #56]	; 0x38
 80031f8:	2300      	movs	r3, #0
 80031fa:	f8a0 305e 	strh.w	r3, [r0, #94]	; 0x5e
 80031fe:	f8a0 3056 	strh.w	r3, [r0, #86]	; 0x56
 8003202:	f7ff ff27 	bl	8003054 <HAL_UART_ErrorCallback>
 8003206:	bd08      	pop	{r3, pc}

08003208 <UART_SetConfig>:
 8003208:	e92d 48f0 	stmdb	sp!, {r4, r5, r6, r7, fp, lr}
 800320c:	4604      	mov	r4, r0
 800320e:	6803      	ldr	r3, [r0, #0]
 8003210:	69c0      	ldr	r0, [r0, #28]
 8003212:	b086      	sub	sp, #24
 8003214:	6921      	ldr	r1, [r4, #16]
 8003216:	68a2      	ldr	r2, [r4, #8]
 8003218:	681d      	ldr	r5, [r3, #0]
 800321a:	430a      	orrs	r2, r1
 800321c:	6961      	ldr	r1, [r4, #20]
 800321e:	430a      	orrs	r2, r1
 8003220:	6e61      	ldr	r1, [r4, #100]	; 0x64
 8003222:	4302      	orrs	r2, r0
 8003224:	430a      	orrs	r2, r1
 8003226:	49a8      	ldr	r1, [pc, #672]	; (80034c8 <UART_SetConfig+0x2c0>)
 8003228:	4029      	ands	r1, r5
 800322a:	430a      	orrs	r2, r1
 800322c:	68e1      	ldr	r1, [r4, #12]
 800322e:	601a      	str	r2, [r3, #0]
 8003230:	685a      	ldr	r2, [r3, #4]
 8003232:	f422 5240 	bic.w	r2, r2, #12288	; 0x3000
 8003236:	430a      	orrs	r2, r1
 8003238:	69a1      	ldr	r1, [r4, #24]
 800323a:	605a      	str	r2, [r3, #4]
 800323c:	4aa3      	ldr	r2, [pc, #652]	; (80034cc <UART_SetConfig+0x2c4>)
 800323e:	4293      	cmp	r3, r2
 8003240:	bf1c      	itt	ne
 8003242:	6a22      	ldrne	r2, [r4, #32]
 8003244:	4311      	orrne	r1, r2
 8003246:	689a      	ldr	r2, [r3, #8]
 8003248:	f022 426e 	bic.w	r2, r2, #3992977408	; 0xee000000
 800324c:	f422 6230 	bic.w	r2, r2, #2816	; 0xb00
 8003250:	430a      	orrs	r2, r1
 8003252:	6a61      	ldr	r1, [r4, #36]	; 0x24
 8003254:	609a      	str	r2, [r3, #8]
 8003256:	6ada      	ldr	r2, [r3, #44]	; 0x2c
 8003258:	f022 020f 	bic.w	r2, r2, #15
 800325c:	430a      	orrs	r2, r1
 800325e:	62da      	str	r2, [r3, #44]	; 0x2c
 8003260:	4a9b      	ldr	r2, [pc, #620]	; (80034d0 <UART_SetConfig+0x2c8>)
 8003262:	4293      	cmp	r3, r2
 8003264:	d11c      	bne.n	80032a0 <UART_SetConfig+0x98>
 8003266:	4b9b      	ldr	r3, [pc, #620]	; (80034d4 <UART_SetConfig+0x2cc>)
 8003268:	6d5b      	ldr	r3, [r3, #84]	; 0x54
 800326a:	f003 0338 	and.w	r3, r3, #56	; 0x38
 800326e:	2b28      	cmp	r3, #40	; 0x28
 8003270:	d86c      	bhi.n	800334c <UART_SetConfig+0x144>
 8003272:	4a99      	ldr	r2, [pc, #612]	; (80034d8 <UART_SetConfig+0x2d0>)
 8003274:	f5b0 4f00 	cmp.w	r0, #32768	; 0x8000
 8003278:	5cd3      	ldrb	r3, [r2, r3]
 800327a:	f040 8104 	bne.w	8003486 <UART_SetConfig+0x27e>
 800327e:	2b08      	cmp	r3, #8
 8003280:	f000 80fa 	beq.w	8003478 <UART_SetConfig+0x270>
 8003284:	f200 80c3 	bhi.w	800340e <UART_SetConfig+0x206>
 8003288:	2b01      	cmp	r3, #1
 800328a:	f000 80f2 	beq.w	8003472 <UART_SetConfig+0x26a>
 800328e:	f0c0 80eb 	bcc.w	8003468 <UART_SetConfig+0x260>
 8003292:	2b04      	cmp	r3, #4
 8003294:	d15a      	bne.n	800334c <UART_SetConfig+0x144>
 8003296:	4668      	mov	r0, sp
 8003298:	f7ff fd7e 	bl	8002d98 <HAL_RCCEx_GetPLL2ClockFreq>
 800329c:	9801      	ldr	r0, [sp, #4]
 800329e:	e0e5      	b.n	800346c <UART_SetConfig+0x264>
 80032a0:	4a8e      	ldr	r2, [pc, #568]	; (80034dc <UART_SetConfig+0x2d4>)
 80032a2:	4293      	cmp	r3, r2
 80032a4:	d107      	bne.n	80032b6 <UART_SetConfig+0xae>
 80032a6:	4b8b      	ldr	r3, [pc, #556]	; (80034d4 <UART_SetConfig+0x2cc>)
 80032a8:	6d5b      	ldr	r3, [r3, #84]	; 0x54
 80032aa:	f003 0307 	and.w	r3, r3, #7
 80032ae:	2b05      	cmp	r3, #5
 80032b0:	d84c      	bhi.n	800334c <UART_SetConfig+0x144>
 80032b2:	4a8b      	ldr	r2, [pc, #556]	; (80034e0 <UART_SetConfig+0x2d8>)
 80032b4:	e7de      	b.n	8003274 <UART_SetConfig+0x6c>
 80032b6:	4a8b      	ldr	r2, [pc, #556]	; (80034e4 <UART_SetConfig+0x2dc>)
 80032b8:	4293      	cmp	r3, r2
 80032ba:	d107      	bne.n	80032cc <UART_SetConfig+0xc4>
 80032bc:	4b85      	ldr	r3, [pc, #532]	; (80034d4 <UART_SetConfig+0x2cc>)
 80032be:	6d5b      	ldr	r3, [r3, #84]	; 0x54
 80032c0:	f003 0307 	and.w	r3, r3, #7
 80032c4:	2b05      	cmp	r3, #5
 80032c6:	d841      	bhi.n	800334c <UART_SetConfig+0x144>
 80032c8:	4a87      	ldr	r2, [pc, #540]	; (80034e8 <UART_SetConfig+0x2e0>)
 80032ca:	e7d3      	b.n	8003274 <UART_SetConfig+0x6c>
 80032cc:	4a87      	ldr	r2, [pc, #540]	; (80034ec <UART_SetConfig+0x2e4>)
 80032ce:	4293      	cmp	r3, r2
 80032d0:	d107      	bne.n	80032e2 <UART_SetConfig+0xda>
 80032d2:	4b80      	ldr	r3, [pc, #512]	; (80034d4 <UART_SetConfig+0x2cc>)
 80032d4:	6d5b      	ldr	r3, [r3, #84]	; 0x54
 80032d6:	f003 0307 	and.w	r3, r3, #7
 80032da:	2b05      	cmp	r3, #5
 80032dc:	d836      	bhi.n	800334c <UART_SetConfig+0x144>
 80032de:	4a84      	ldr	r2, [pc, #528]	; (80034f0 <UART_SetConfig+0x2e8>)
 80032e0:	e7c8      	b.n	8003274 <UART_SetConfig+0x6c>
 80032e2:	4a84      	ldr	r2, [pc, #528]	; (80034f4 <UART_SetConfig+0x2ec>)
 80032e4:	4293      	cmp	r3, r2
 80032e6:	d107      	bne.n	80032f8 <UART_SetConfig+0xf0>
 80032e8:	4b7a      	ldr	r3, [pc, #488]	; (80034d4 <UART_SetConfig+0x2cc>)
 80032ea:	6d5b      	ldr	r3, [r3, #84]	; 0x54
 80032ec:	f003 0307 	and.w	r3, r3, #7
 80032f0:	2b05      	cmp	r3, #5
 80032f2:	d82b      	bhi.n	800334c <UART_SetConfig+0x144>
 80032f4:	4a80      	ldr	r2, [pc, #512]	; (80034f8 <UART_SetConfig+0x2f0>)
 80032f6:	e7bd      	b.n	8003274 <UART_SetConfig+0x6c>
 80032f8:	4a80      	ldr	r2, [pc, #512]	; (80034fc <UART_SetConfig+0x2f4>)
 80032fa:	4293      	cmp	r3, r2
 80032fc:	d107      	bne.n	800330e <UART_SetConfig+0x106>
 80032fe:	4b75      	ldr	r3, [pc, #468]	; (80034d4 <UART_SetConfig+0x2cc>)
 8003300:	6d5b      	ldr	r3, [r3, #84]	; 0x54
 8003302:	f003 0338 	and.w	r3, r3, #56	; 0x38
 8003306:	2b28      	cmp	r3, #40	; 0x28
 8003308:	d820      	bhi.n	800334c <UART_SetConfig+0x144>
 800330a:	4a7d      	ldr	r2, [pc, #500]	; (8003500 <UART_SetConfig+0x2f8>)
 800330c:	e7b2      	b.n	8003274 <UART_SetConfig+0x6c>
 800330e:	4a7d      	ldr	r2, [pc, #500]	; (8003504 <UART_SetConfig+0x2fc>)
 8003310:	4293      	cmp	r3, r2
 8003312:	d107      	bne.n	8003324 <UART_SetConfig+0x11c>
 8003314:	4b6f      	ldr	r3, [pc, #444]	; (80034d4 <UART_SetConfig+0x2cc>)
 8003316:	6d5b      	ldr	r3, [r3, #84]	; 0x54
 8003318:	f003 0307 	and.w	r3, r3, #7
 800331c:	2b05      	cmp	r3, #5
 800331e:	d815      	bhi.n	800334c <UART_SetConfig+0x144>
 8003320:	4a79      	ldr	r2, [pc, #484]	; (8003508 <UART_SetConfig+0x300>)
 8003322:	e7a7      	b.n	8003274 <UART_SetConfig+0x6c>
 8003324:	4a79      	ldr	r2, [pc, #484]	; (800350c <UART_SetConfig+0x304>)
 8003326:	4293      	cmp	r3, r2
 8003328:	d107      	bne.n	800333a <UART_SetConfig+0x132>
 800332a:	4b6a      	ldr	r3, [pc, #424]	; (80034d4 <UART_SetConfig+0x2cc>)
 800332c:	6d5b      	ldr	r3, [r3, #84]	; 0x54
 800332e:	f003 0307 	and.w	r3, r3, #7
 8003332:	2b05      	cmp	r3, #5
 8003334:	d80a      	bhi.n	800334c <UART_SetConfig+0x144>
 8003336:	4a76      	ldr	r2, [pc, #472]	; (8003510 <UART_SetConfig+0x308>)
 8003338:	e79c      	b.n	8003274 <UART_SetConfig+0x6c>
 800333a:	4a64      	ldr	r2, [pc, #400]	; (80034cc <UART_SetConfig+0x2c4>)
 800333c:	4293      	cmp	r3, r2
 800333e:	d105      	bne.n	800334c <UART_SetConfig+0x144>
 8003340:	4b64      	ldr	r3, [pc, #400]	; (80034d4 <UART_SetConfig+0x2cc>)
 8003342:	6d9b      	ldr	r3, [r3, #88]	; 0x58
 8003344:	f003 0307 	and.w	r3, r3, #7
 8003348:	2b05      	cmp	r3, #5
 800334a:	d901      	bls.n	8003350 <UART_SetConfig+0x148>
 800334c:	2001      	movs	r0, #1
 800334e:	e04b      	b.n	80033e8 <UART_SetConfig+0x1e0>
 8003350:	4a70      	ldr	r2, [pc, #448]	; (8003514 <UART_SetConfig+0x30c>)
 8003352:	5cd3      	ldrb	r3, [r2, r3]
 8003354:	2b08      	cmp	r3, #8
 8003356:	d050      	beq.n	80033fa <UART_SetConfig+0x1f2>
 8003358:	d808      	bhi.n	800336c <UART_SetConfig+0x164>
 800335a:	2b02      	cmp	r3, #2
 800335c:	d03f      	beq.n	80033de <UART_SetConfig+0x1d6>
 800335e:	2b04      	cmp	r3, #4
 8003360:	d1f4      	bne.n	800334c <UART_SetConfig+0x144>
 8003362:	4668      	mov	r0, sp
 8003364:	f7ff fd18 	bl	8002d98 <HAL_RCCEx_GetPLL2ClockFreq>
 8003368:	9801      	ldr	r0, [sp, #4]
 800336a:	e03a      	b.n	80033e2 <UART_SetConfig+0x1da>
 800336c:	2b20      	cmp	r3, #32
 800336e:	d04c      	beq.n	800340a <UART_SetConfig+0x202>
 8003370:	2b40      	cmp	r3, #64	; 0x40
 8003372:	d047      	beq.n	8003404 <UART_SetConfig+0x1fc>
 8003374:	2b10      	cmp	r3, #16
 8003376:	d1e9      	bne.n	800334c <UART_SetConfig+0x144>
 8003378:	4b56      	ldr	r3, [pc, #344]	; (80034d4 <UART_SetConfig+0x2cc>)
 800337a:	4867      	ldr	r0, [pc, #412]	; (8003518 <UART_SetConfig+0x310>)
 800337c:	681a      	ldr	r2, [r3, #0]
 800337e:	f012 0f20 	tst.w	r2, #32
 8003382:	d003      	beq.n	800338c <UART_SetConfig+0x184>
 8003384:	681b      	ldr	r3, [r3, #0]
 8003386:	f3c3 03c1 	ubfx	r3, r3, #3, #2
 800338a:	40d8      	lsrs	r0, r3
 800338c:	4b63      	ldr	r3, [pc, #396]	; (800351c <UART_SetConfig+0x314>)
 800338e:	6a62      	ldr	r2, [r4, #36]	; 0x24
 8003390:	6865      	ldr	r5, [r4, #4]
 8003392:	f833 2012 	ldrh.w	r2, [r3, r2, lsl #1]
 8003396:	eb05 0145 	add.w	r1, r5, r5, lsl #1
 800339a:	fbb0 f3f2 	udiv	r3, r0, r2
 800339e:	4299      	cmp	r1, r3
 80033a0:	d8d4      	bhi.n	800334c <UART_SetConfig+0x144>
 80033a2:	ebb3 3f05 	cmp.w	r3, r5, lsl #12
 80033a6:	d8d1      	bhi.n	800334c <UART_SetConfig+0x144>
 80033a8:	2300      	movs	r3, #0
 80033aa:	2100      	movs	r1, #0
 80033ac:	f7fc ffe8 	bl	8000380 <__aeabi_uldivmod>
 80033b0:	462a      	mov	r2, r5
 80033b2:	020f      	lsls	r7, r1, #8
 80033b4:	2300      	movs	r3, #0
 80033b6:	0206      	lsls	r6, r0, #8
 80033b8:	ea47 6710 	orr.w	r7, r7, r0, lsr #24
 80033bc:	0868      	lsrs	r0, r5, #1
 80033be:	eb16 0b00 	adds.w	fp, r6, r0
 80033c2:	f147 0c00 	adc.w	ip, r7, #0
 80033c6:	4658      	mov	r0, fp
 80033c8:	4661      	mov	r1, ip
 80033ca:	f7fc ffd9 	bl	8000380 <__aeabi_uldivmod>
 80033ce:	4b54      	ldr	r3, [pc, #336]	; (8003520 <UART_SetConfig+0x318>)
 80033d0:	f5a0 7240 	sub.w	r2, r0, #768	; 0x300
 80033d4:	429a      	cmp	r2, r3
 80033d6:	d8b9      	bhi.n	800334c <UART_SetConfig+0x144>
 80033d8:	6823      	ldr	r3, [r4, #0]
 80033da:	60d8      	str	r0, [r3, #12]
 80033dc:	e003      	b.n	80033e6 <UART_SetConfig+0x1de>
 80033de:	f7ff fcc9 	bl	8002d74 <HAL_RCCEx_GetD3PCLK1Freq>
 80033e2:	2800      	cmp	r0, #0
 80033e4:	d1d2      	bne.n	800338c <UART_SetConfig+0x184>
 80033e6:	2000      	movs	r0, #0
 80033e8:	2300      	movs	r3, #0
 80033ea:	f04f 1201 	mov.w	r2, #65537	; 0x10001
 80033ee:	e9c4 231a 	strd	r2, r3, [r4, #104]	; 0x68
 80033f2:	6723      	str	r3, [r4, #112]	; 0x70
 80033f4:	b006      	add	sp, #24
 80033f6:	e8bd 88f0 	ldmia.w	sp!, {r4, r5, r6, r7, fp, pc}
 80033fa:	a803      	add	r0, sp, #12
 80033fc:	f7ff fd72 	bl	8002ee4 <HAL_RCCEx_GetPLL3ClockFreq>
 8003400:	9804      	ldr	r0, [sp, #16]
 8003402:	e7ee      	b.n	80033e2 <UART_SetConfig+0x1da>
 8003404:	f44f 4000 	mov.w	r0, #32768	; 0x8000
 8003408:	e7c0      	b.n	800338c <UART_SetConfig+0x184>
 800340a:	4846      	ldr	r0, [pc, #280]	; (8003524 <UART_SetConfig+0x31c>)
 800340c:	e7be      	b.n	800338c <UART_SetConfig+0x184>
 800340e:	2b20      	cmp	r3, #32
 8003410:	d037      	beq.n	8003482 <UART_SetConfig+0x27a>
 8003412:	2b40      	cmp	r3, #64	; 0x40
 8003414:	d00b      	beq.n	800342e <UART_SetConfig+0x226>
 8003416:	2b10      	cmp	r3, #16
 8003418:	d198      	bne.n	800334c <UART_SetConfig+0x144>
 800341a:	4b2e      	ldr	r3, [pc, #184]	; (80034d4 <UART_SetConfig+0x2cc>)
 800341c:	483e      	ldr	r0, [pc, #248]	; (8003518 <UART_SetConfig+0x310>)
 800341e:	681a      	ldr	r2, [r3, #0]
 8003420:	f012 0f20 	tst.w	r2, #32
 8003424:	d003      	beq.n	800342e <UART_SetConfig+0x226>
 8003426:	681b      	ldr	r3, [r3, #0]
 8003428:	f3c3 03c1 	ubfx	r3, r3, #3, #2
 800342c:	40d8      	lsrs	r0, r3
 800342e:	6a61      	ldr	r1, [r4, #36]	; 0x24
 8003430:	4b3a      	ldr	r3, [pc, #232]	; (800351c <UART_SetConfig+0x314>)
 8003432:	6862      	ldr	r2, [r4, #4]
 8003434:	f833 3011 	ldrh.w	r3, [r3, r1, lsl #1]
 8003438:	fbb0 f0f3 	udiv	r0, r0, r3
 800343c:	0853      	lsrs	r3, r2, #1
 800343e:	eb03 0040 	add.w	r0, r3, r0, lsl #1
 8003442:	fbb0 f0f2 	udiv	r0, r0, r2
 8003446:	b283      	uxth	r3, r0
 8003448:	f64f 72ef 	movw	r2, #65519	; 0xffef
 800344c:	f1a3 0110 	sub.w	r1, r3, #16
 8003450:	4291      	cmp	r1, r2
 8003452:	f63f af7b 	bhi.w	800334c <UART_SetConfig+0x144>
 8003456:	f020 000f 	bic.w	r0, r0, #15
 800345a:	f3c3 0342 	ubfx	r3, r3, #1, #3
 800345e:	6822      	ldr	r2, [r4, #0]
 8003460:	b280      	uxth	r0, r0
 8003462:	4318      	orrs	r0, r3
 8003464:	60d0      	str	r0, [r2, #12]
 8003466:	e7be      	b.n	80033e6 <UART_SetConfig+0x1de>
 8003468:	f7fe ff12 	bl	8002290 <HAL_RCC_GetPCLK1Freq>
 800346c:	2800      	cmp	r0, #0
 800346e:	d0ba      	beq.n	80033e6 <UART_SetConfig+0x1de>
 8003470:	e7dd      	b.n	800342e <UART_SetConfig+0x226>
 8003472:	f7fe ff1f 	bl	80022b4 <HAL_RCC_GetPCLK2Freq>
 8003476:	e7f9      	b.n	800346c <UART_SetConfig+0x264>
 8003478:	a803      	add	r0, sp, #12
 800347a:	f7ff fd33 	bl	8002ee4 <HAL_RCCEx_GetPLL3ClockFreq>
 800347e:	9804      	ldr	r0, [sp, #16]
 8003480:	e7f4      	b.n	800346c <UART_SetConfig+0x264>
 8003482:	4828      	ldr	r0, [pc, #160]	; (8003524 <UART_SetConfig+0x31c>)
 8003484:	e7d3      	b.n	800342e <UART_SetConfig+0x226>
 8003486:	2b08      	cmp	r3, #8
 8003488:	d06a      	beq.n	8003560 <UART_SetConfig+0x358>
 800348a:	d80a      	bhi.n	80034a2 <UART_SetConfig+0x29a>
 800348c:	2b01      	cmp	r3, #1
 800348e:	d064      	beq.n	800355a <UART_SetConfig+0x352>
 8003490:	d35d      	bcc.n	800354e <UART_SetConfig+0x346>
 8003492:	2b04      	cmp	r3, #4
 8003494:	f47f af5a 	bne.w	800334c <UART_SetConfig+0x144>
 8003498:	4668      	mov	r0, sp
 800349a:	f7ff fc7d 	bl	8002d98 <HAL_RCCEx_GetPLL2ClockFreq>
 800349e:	9801      	ldr	r0, [sp, #4]
 80034a0:	e057      	b.n	8003552 <UART_SetConfig+0x34a>
 80034a2:	2b20      	cmp	r3, #32
 80034a4:	d061      	beq.n	800356a <UART_SetConfig+0x362>
 80034a6:	2b40      	cmp	r3, #64	; 0x40
 80034a8:	d03e      	beq.n	8003528 <UART_SetConfig+0x320>
 80034aa:	2b10      	cmp	r3, #16
 80034ac:	f47f af4e 	bne.w	800334c <UART_SetConfig+0x144>
 80034b0:	4b08      	ldr	r3, [pc, #32]	; (80034d4 <UART_SetConfig+0x2cc>)
 80034b2:	4819      	ldr	r0, [pc, #100]	; (8003518 <UART_SetConfig+0x310>)
 80034b4:	681a      	ldr	r2, [r3, #0]
 80034b6:	f012 0f20 	tst.w	r2, #32
 80034ba:	d037      	beq.n	800352c <UART_SetConfig+0x324>
 80034bc:	681b      	ldr	r3, [r3, #0]
 80034be:	f3c3 03c1 	ubfx	r3, r3, #3, #2
 80034c2:	40d8      	lsrs	r0, r3
 80034c4:	e032      	b.n	800352c <UART_SetConfig+0x324>
 80034c6:	bf00      	nop
 80034c8:	cfff69f3 	.word	0xcfff69f3
 80034cc:	58000c00 	.word	0x58000c00
 80034d0:	40011000 	.word	0x40011000
 80034d4:	58024400 	.word	0x58024400
 80034d8:	08004a8c 	.word	0x08004a8c
 80034dc:	40004400 	.word	0x40004400
 80034e0:	08004ab5 	.word	0x08004ab5
 80034e4:	40004800 	.word	0x40004800
 80034e8:	08004ab5 	.word	0x08004ab5
 80034ec:	40004c00 	.word	0x40004c00
 80034f0:	08004ab5 	.word	0x08004ab5
 80034f4:	40005000 	.word	0x40005000
 80034f8:	08004ab5 	.word	0x08004ab5
 80034fc:	40011400 	.word	0x40011400
 8003500:	08004a8c 	.word	0x08004a8c
 8003504:	40007800 	.word	0x40007800
 8003508:	08004ab5 	.word	0x08004ab5
 800350c:	40007c00 	.word	0x40007c00
 8003510:	08004ab5 	.word	0x08004ab5
 8003514:	08004abb 	.word	0x08004abb
 8003518:	03d09000 	.word	0x03d09000
 800351c:	08004ac2 	.word	0x08004ac2
 8003520:	000ffcff 	.word	0x000ffcff
 8003524:	003d0900 	.word	0x003d0900
 8003528:	f44f 4000 	mov.w	r0, #32768	; 0x8000
 800352c:	6a61      	ldr	r1, [r4, #36]	; 0x24
 800352e:	4a10      	ldr	r2, [pc, #64]	; (8003570 <UART_SetConfig+0x368>)
 8003530:	6863      	ldr	r3, [r4, #4]
 8003532:	f832 2011 	ldrh.w	r2, [r2, r1, lsl #1]
 8003536:	fbb0 f0f2 	udiv	r0, r0, r2
 800353a:	eb00 0053 	add.w	r0, r0, r3, lsr #1
 800353e:	fbb0 f0f3 	udiv	r0, r0, r3
 8003542:	b280      	uxth	r0, r0
 8003544:	f64f 73ef 	movw	r3, #65519	; 0xffef
 8003548:	f1a0 0210 	sub.w	r2, r0, #16
 800354c:	e742      	b.n	80033d4 <UART_SetConfig+0x1cc>
 800354e:	f7fe fe9f 	bl	8002290 <HAL_RCC_GetPCLK1Freq>
 8003552:	2800      	cmp	r0, #0
 8003554:	f43f af47 	beq.w	80033e6 <UART_SetConfig+0x1de>
 8003558:	e7e8      	b.n	800352c <UART_SetConfig+0x324>
 800355a:	f7fe feab 	bl	80022b4 <HAL_RCC_GetPCLK2Freq>
 800355e:	e7f8      	b.n	8003552 <UART_SetConfig+0x34a>
 8003560:	a803      	add	r0, sp, #12
 8003562:	f7ff fcbf 	bl	8002ee4 <HAL_RCCEx_GetPLL3ClockFreq>
 8003566:	9804      	ldr	r0, [sp, #16]
 8003568:	e7f3      	b.n	8003552 <UART_SetConfig+0x34a>
 800356a:	4802      	ldr	r0, [pc, #8]	; (8003574 <UART_SetConfig+0x36c>)
 800356c:	e7de      	b.n	800352c <UART_SetConfig+0x324>
 800356e:	bf00      	nop
 8003570:	08004ac2 	.word	0x08004ac2
 8003574:	003d0900 	.word	0x003d0900

08003578 <UART_AdvFeatureConfig>:
 8003578:	6a83      	ldr	r3, [r0, #40]	; 0x28
 800357a:	07da      	lsls	r2, r3, #31
 800357c:	b510      	push	{r4, lr}
 800357e:	d506      	bpl.n	800358e <UART_AdvFeatureConfig+0x16>
 8003580:	6801      	ldr	r1, [r0, #0]
 8003582:	6ac4      	ldr	r4, [r0, #44]	; 0x2c
 8003584:	684a      	ldr	r2, [r1, #4]
 8003586:	f422 3200 	bic.w	r2, r2, #131072	; 0x20000
 800358a:	4322      	orrs	r2, r4
 800358c:	604a      	str	r2, [r1, #4]
 800358e:	079c      	lsls	r4, r3, #30
 8003590:	d506      	bpl.n	80035a0 <UART_AdvFeatureConfig+0x28>
 8003592:	6801      	ldr	r1, [r0, #0]
 8003594:	6b04      	ldr	r4, [r0, #48]	; 0x30
 8003596:	684a      	ldr	r2, [r1, #4]
 8003598:	f422 3280 	bic.w	r2, r2, #65536	; 0x10000
 800359c:	4322      	orrs	r2, r4
 800359e:	604a      	str	r2, [r1, #4]
 80035a0:	0759      	lsls	r1, r3, #29
 80035a2:	d506      	bpl.n	80035b2 <UART_AdvFeatureConfig+0x3a>
 80035a4:	6801      	ldr	r1, [r0, #0]
 80035a6:	6b44      	ldr	r4, [r0, #52]	; 0x34
 80035a8:	684a      	ldr	r2, [r1, #4]
 80035aa:	f422 2280 	bic.w	r2, r2, #262144	; 0x40000
 80035ae:	4322      	orrs	r2, r4
 80035b0:	604a      	str	r2, [r1, #4]
 80035b2:	071a      	lsls	r2, r3, #28
 80035b4:	d506      	bpl.n	80035c4 <UART_AdvFeatureConfig+0x4c>
 80035b6:	6801      	ldr	r1, [r0, #0]
 80035b8:	6b84      	ldr	r4, [r0, #56]	; 0x38
 80035ba:	684a      	ldr	r2, [r1, #4]
 80035bc:	f422 4200 	bic.w	r2, r2, #32768	; 0x8000
 80035c0:	4322      	orrs	r2, r4
 80035c2:	604a      	str	r2, [r1, #4]
 80035c4:	06dc      	lsls	r4, r3, #27
 80035c6:	d506      	bpl.n	80035d6 <UART_AdvFeatureConfig+0x5e>
 80035c8:	6801      	ldr	r1, [r0, #0]
 80035ca:	6bc4      	ldr	r4, [r0, #60]	; 0x3c
 80035cc:	688a      	ldr	r2, [r1, #8]
 80035ce:	f422 5280 	bic.w	r2, r2, #4096	; 0x1000
 80035d2:	4322      	orrs	r2, r4
 80035d4:	608a      	str	r2, [r1, #8]
 80035d6:	0699      	lsls	r1, r3, #26
 80035d8:	d506      	bpl.n	80035e8 <UART_AdvFeatureConfig+0x70>
 80035da:	6801      	ldr	r1, [r0, #0]
 80035dc:	6c04      	ldr	r4, [r0, #64]	; 0x40
 80035de:	688a      	ldr	r2, [r1, #8]
 80035e0:	f422 5200 	bic.w	r2, r2, #8192	; 0x2000
 80035e4:	4322      	orrs	r2, r4
 80035e6:	608a      	str	r2, [r1, #8]
 80035e8:	065a      	lsls	r2, r3, #25
 80035ea:	d510      	bpl.n	800360e <UART_AdvFeatureConfig+0x96>
 80035ec:	6801      	ldr	r1, [r0, #0]
 80035ee:	6c44      	ldr	r4, [r0, #68]	; 0x44
 80035f0:	684a      	ldr	r2, [r1, #4]
 80035f2:	f5b4 1f80 	cmp.w	r4, #1048576	; 0x100000
 80035f6:	f422 1280 	bic.w	r2, r2, #1048576	; 0x100000
 80035fa:	ea42 0204 	orr.w	r2, r2, r4
 80035fe:	604a      	str	r2, [r1, #4]
 8003600:	d105      	bne.n	800360e <UART_AdvFeatureConfig+0x96>
 8003602:	684a      	ldr	r2, [r1, #4]
 8003604:	6c84      	ldr	r4, [r0, #72]	; 0x48
 8003606:	f422 02c0 	bic.w	r2, r2, #6291456	; 0x600000
 800360a:	4322      	orrs	r2, r4
 800360c:	604a      	str	r2, [r1, #4]
 800360e:	061b      	lsls	r3, r3, #24
 8003610:	d506      	bpl.n	8003620 <UART_AdvFeatureConfig+0xa8>
 8003612:	6802      	ldr	r2, [r0, #0]
 8003614:	6cc1      	ldr	r1, [r0, #76]	; 0x4c
 8003616:	6853      	ldr	r3, [r2, #4]
 8003618:	f423 2300 	bic.w	r3, r3, #524288	; 0x80000
 800361c:	430b      	orrs	r3, r1
 800361e:	6053      	str	r3, [r2, #4]
 8003620:	bd10      	pop	{r4, pc}

08003622 <UART_WaitOnFlagUntilTimeout>:
 8003622:	e92d 41f0 	stmdb	sp!, {r4, r5, r6, r7, r8, lr}
 8003626:	9d06      	ldr	r5, [sp, #24]
 8003628:	4604      	mov	r4, r0
 800362a:	460f      	mov	r7, r1
 800362c:	4616      	mov	r6, r2
 800362e:	4698      	mov	r8, r3
 8003630:	6821      	ldr	r1, [r4, #0]
 8003632:	69ca      	ldr	r2, [r1, #28]
 8003634:	ea37 0302 	bics.w	r3, r7, r2
 8003638:	bf0c      	ite	eq
 800363a:	2201      	moveq	r2, #1
 800363c:	2200      	movne	r2, #0
 800363e:	42b2      	cmp	r2, r6
 8003640:	d001      	beq.n	8003646 <UART_WaitOnFlagUntilTimeout+0x24>
 8003642:	2000      	movs	r0, #0
 8003644:	e01a      	b.n	800367c <UART_WaitOnFlagUntilTimeout+0x5a>
 8003646:	1c68      	adds	r0, r5, #1
 8003648:	d0f3      	beq.n	8003632 <UART_WaitOnFlagUntilTimeout+0x10>
 800364a:	f7fd fc2b 	bl	8000ea4 <HAL_GetTick>
 800364e:	eba0 0008 	sub.w	r0, r0, r8
 8003652:	42a8      	cmp	r0, r5
 8003654:	6820      	ldr	r0, [r4, #0]
 8003656:	6803      	ldr	r3, [r0, #0]
 8003658:	d800      	bhi.n	800365c <UART_WaitOnFlagUntilTimeout+0x3a>
 800365a:	b98d      	cbnz	r5, 8003680 <UART_WaitOnFlagUntilTimeout+0x5e>
 800365c:	f423 73d0 	bic.w	r3, r3, #416	; 0x1a0
 8003660:	6003      	str	r3, [r0, #0]
 8003662:	6883      	ldr	r3, [r0, #8]
 8003664:	f023 0301 	bic.w	r3, r3, #1
 8003668:	6083      	str	r3, [r0, #8]
 800366a:	2320      	movs	r3, #32
 800366c:	f8c4 3080 	str.w	r3, [r4, #128]	; 0x80
 8003670:	f8c4 3084 	str.w	r3, [r4, #132]	; 0x84
 8003674:	2300      	movs	r3, #0
 8003676:	2003      	movs	r0, #3
 8003678:	f884 307c 	strb.w	r3, [r4, #124]	; 0x7c
 800367c:	e8bd 81f0 	ldmia.w	sp!, {r4, r5, r6, r7, r8, pc}
 8003680:	075a      	lsls	r2, r3, #29
 8003682:	d5d5      	bpl.n	8003630 <UART_WaitOnFlagUntilTimeout+0xe>
 8003684:	69c3      	ldr	r3, [r0, #28]
 8003686:	051b      	lsls	r3, r3, #20
 8003688:	d5d2      	bpl.n	8003630 <UART_WaitOnFlagUntilTimeout+0xe>
 800368a:	f44f 6300 	mov.w	r3, #2048	; 0x800
 800368e:	6203      	str	r3, [r0, #32]
 8003690:	6803      	ldr	r3, [r0, #0]
 8003692:	f423 73d0 	bic.w	r3, r3, #416	; 0x1a0
 8003696:	6003      	str	r3, [r0, #0]
 8003698:	6883      	ldr	r3, [r0, #8]
 800369a:	f023 0301 	bic.w	r3, r3, #1
 800369e:	6083      	str	r3, [r0, #8]
 80036a0:	2320      	movs	r3, #32
 80036a2:	f8c4 3080 	str.w	r3, [r4, #128]	; 0x80
 80036a6:	f8c4 3084 	str.w	r3, [r4, #132]	; 0x84
 80036aa:	f8c4 3088 	str.w	r3, [r4, #136]	; 0x88
 80036ae:	e7e1      	b.n	8003674 <UART_WaitOnFlagUntilTimeout+0x52>

080036b0 <HAL_UART_Transmit>:
 80036b0:	e92d 43f7 	stmdb	sp!, {r0, r1, r2, r4, r5, r6, r7, r8, r9, lr}
 80036b4:	4698      	mov	r8, r3
 80036b6:	f8d0 3080 	ldr.w	r3, [r0, #128]	; 0x80
 80036ba:	4604      	mov	r4, r0
 80036bc:	460e      	mov	r6, r1
 80036be:	2b20      	cmp	r3, #32
 80036c0:	4691      	mov	r9, r2
 80036c2:	d14f      	bne.n	8003764 <HAL_UART_Transmit+0xb4>
 80036c4:	2900      	cmp	r1, #0
 80036c6:	d04b      	beq.n	8003760 <HAL_UART_Transmit+0xb0>
 80036c8:	2a00      	cmp	r2, #0
 80036ca:	d049      	beq.n	8003760 <HAL_UART_Transmit+0xb0>
 80036cc:	f890 307c 	ldrb.w	r3, [r0, #124]	; 0x7c
 80036d0:	2b01      	cmp	r3, #1
 80036d2:	d047      	beq.n	8003764 <HAL_UART_Transmit+0xb4>
 80036d4:	2301      	movs	r3, #1
 80036d6:	2500      	movs	r5, #0
 80036d8:	f880 307c 	strb.w	r3, [r0, #124]	; 0x7c
 80036dc:	2321      	movs	r3, #33	; 0x21
 80036de:	f8c0 5088 	str.w	r5, [r0, #136]	; 0x88
 80036e2:	f8c0 3080 	str.w	r3, [r0, #128]	; 0x80
 80036e6:	f7fd fbdd 	bl	8000ea4 <HAL_GetTick>
 80036ea:	68a3      	ldr	r3, [r4, #8]
 80036ec:	4607      	mov	r7, r0
 80036ee:	f8a4 9054 	strh.w	r9, [r4, #84]	; 0x54
 80036f2:	f5b3 5f80 	cmp.w	r3, #4096	; 0x1000
 80036f6:	f8a4 9056 	strh.w	r9, [r4, #86]	; 0x56
 80036fa:	d103      	bne.n	8003704 <HAL_UART_Transmit+0x54>
 80036fc:	6923      	ldr	r3, [r4, #16]
 80036fe:	b90b      	cbnz	r3, 8003704 <HAL_UART_Transmit+0x54>
 8003700:	4635      	mov	r5, r6
 8003702:	461e      	mov	r6, r3
 8003704:	2300      	movs	r3, #0
 8003706:	f884 307c 	strb.w	r3, [r4, #124]	; 0x7c
 800370a:	f8b4 2056 	ldrh.w	r2, [r4, #86]	; 0x56
 800370e:	463b      	mov	r3, r7
 8003710:	f8cd 8000 	str.w	r8, [sp]
 8003714:	b292      	uxth	r2, r2
 8003716:	b942      	cbnz	r2, 800372a <HAL_UART_Transmit+0x7a>
 8003718:	2140      	movs	r1, #64	; 0x40
 800371a:	4620      	mov	r0, r4
 800371c:	f7ff ff81 	bl	8003622 <UART_WaitOnFlagUntilTimeout>
 8003720:	b948      	cbnz	r0, 8003736 <HAL_UART_Transmit+0x86>
 8003722:	2320      	movs	r3, #32
 8003724:	f8c4 3080 	str.w	r3, [r4, #128]	; 0x80
 8003728:	e006      	b.n	8003738 <HAL_UART_Transmit+0x88>
 800372a:	2200      	movs	r2, #0
 800372c:	2180      	movs	r1, #128	; 0x80
 800372e:	4620      	mov	r0, r4
 8003730:	f7ff ff77 	bl	8003622 <UART_WaitOnFlagUntilTimeout>
 8003734:	b118      	cbz	r0, 800373e <HAL_UART_Transmit+0x8e>
 8003736:	2003      	movs	r0, #3
 8003738:	b003      	add	sp, #12
 800373a:	e8bd 83f0 	ldmia.w	sp!, {r4, r5, r6, r7, r8, r9, pc}
 800373e:	6822      	ldr	r2, [r4, #0]
 8003740:	b95e      	cbnz	r6, 800375a <HAL_UART_Transmit+0xaa>
 8003742:	f835 3b02 	ldrh.w	r3, [r5], #2
 8003746:	f3c3 0308 	ubfx	r3, r3, #0, #9
 800374a:	6293      	str	r3, [r2, #40]	; 0x28
 800374c:	f8b4 3056 	ldrh.w	r3, [r4, #86]	; 0x56
 8003750:	3b01      	subs	r3, #1
 8003752:	b29b      	uxth	r3, r3
 8003754:	f8a4 3056 	strh.w	r3, [r4, #86]	; 0x56
 8003758:	e7d7      	b.n	800370a <HAL_UART_Transmit+0x5a>
 800375a:	f816 3b01 	ldrb.w	r3, [r6], #1
 800375e:	e7f4      	b.n	800374a <HAL_UART_Transmit+0x9a>
 8003760:	2001      	movs	r0, #1
 8003762:	e7e9      	b.n	8003738 <HAL_UART_Transmit+0x88>
 8003764:	2002      	movs	r0, #2
 8003766:	e7e7      	b.n	8003738 <HAL_UART_Transmit+0x88>

08003768 <UART_CheckIdleState>:
 8003768:	b573      	push	{r0, r1, r4, r5, r6, lr}
 800376a:	2600      	movs	r6, #0
 800376c:	4604      	mov	r4, r0
 800376e:	f8c0 6088 	str.w	r6, [r0, #136]	; 0x88
 8003772:	f7fd fb97 	bl	8000ea4 <HAL_GetTick>
 8003776:	6823      	ldr	r3, [r4, #0]
 8003778:	4605      	mov	r5, r0
 800377a:	681b      	ldr	r3, [r3, #0]
 800377c:	071a      	lsls	r2, r3, #28
 800377e:	d417      	bmi.n	80037b0 <UART_CheckIdleState+0x48>
 8003780:	6823      	ldr	r3, [r4, #0]
 8003782:	681b      	ldr	r3, [r3, #0]
 8003784:	075b      	lsls	r3, r3, #29
 8003786:	d50a      	bpl.n	800379e <UART_CheckIdleState+0x36>
 8003788:	f06f 437e 	mvn.w	r3, #4261412864	; 0xfe000000
 800378c:	2200      	movs	r2, #0
 800378e:	f44f 0180 	mov.w	r1, #4194304	; 0x400000
 8003792:	4620      	mov	r0, r4
 8003794:	9300      	str	r3, [sp, #0]
 8003796:	462b      	mov	r3, r5
 8003798:	f7ff ff43 	bl	8003622 <UART_WaitOnFlagUntilTimeout>
 800379c:	b9a0      	cbnz	r0, 80037c8 <UART_CheckIdleState+0x60>
 800379e:	2320      	movs	r3, #32
 80037a0:	2000      	movs	r0, #0
 80037a2:	f8c4 3080 	str.w	r3, [r4, #128]	; 0x80
 80037a6:	f884 007c 	strb.w	r0, [r4, #124]	; 0x7c
 80037aa:	f8c4 3084 	str.w	r3, [r4, #132]	; 0x84
 80037ae:	e00c      	b.n	80037ca <UART_CheckIdleState+0x62>
 80037b0:	f06f 437e 	mvn.w	r3, #4261412864	; 0xfe000000
 80037b4:	4632      	mov	r2, r6
 80037b6:	f44f 1100 	mov.w	r1, #2097152	; 0x200000
 80037ba:	9300      	str	r3, [sp, #0]
 80037bc:	4603      	mov	r3, r0
 80037be:	4620      	mov	r0, r4
 80037c0:	f7ff ff2f 	bl	8003622 <UART_WaitOnFlagUntilTimeout>
 80037c4:	2800      	cmp	r0, #0
 80037c6:	d0db      	beq.n	8003780 <UART_CheckIdleState+0x18>
 80037c8:	2003      	movs	r0, #3
 80037ca:	b002      	add	sp, #8
 80037cc:	bd70      	pop	{r4, r5, r6, pc}

080037ce <HAL_UART_Init>:
 80037ce:	b510      	push	{r4, lr}
 80037d0:	4604      	mov	r4, r0
 80037d2:	b350      	cbz	r0, 800382a <HAL_UART_Init+0x5c>
 80037d4:	f8d0 3080 	ldr.w	r3, [r0, #128]	; 0x80
 80037d8:	b91b      	cbnz	r3, 80037e2 <HAL_UART_Init+0x14>
 80037da:	f880 307c 	strb.w	r3, [r0, #124]	; 0x7c
 80037de:	f7fd f997 	bl	8000b10 <HAL_UART_MspInit>
 80037e2:	6822      	ldr	r2, [r4, #0]
 80037e4:	2324      	movs	r3, #36	; 0x24
 80037e6:	4620      	mov	r0, r4
 80037e8:	f8c4 3080 	str.w	r3, [r4, #128]	; 0x80
 80037ec:	6813      	ldr	r3, [r2, #0]
 80037ee:	f023 0301 	bic.w	r3, r3, #1
 80037f2:	6013      	str	r3, [r2, #0]
 80037f4:	f7ff fd08 	bl	8003208 <UART_SetConfig>
 80037f8:	2801      	cmp	r0, #1
 80037fa:	d016      	beq.n	800382a <HAL_UART_Init+0x5c>
 80037fc:	6aa3      	ldr	r3, [r4, #40]	; 0x28
 80037fe:	b113      	cbz	r3, 8003806 <HAL_UART_Init+0x38>
 8003800:	4620      	mov	r0, r4
 8003802:	f7ff feb9 	bl	8003578 <UART_AdvFeatureConfig>
 8003806:	6823      	ldr	r3, [r4, #0]
 8003808:	4620      	mov	r0, r4
 800380a:	685a      	ldr	r2, [r3, #4]
 800380c:	f422 4290 	bic.w	r2, r2, #18432	; 0x4800
 8003810:	605a      	str	r2, [r3, #4]
 8003812:	689a      	ldr	r2, [r3, #8]
 8003814:	f022 022a 	bic.w	r2, r2, #42	; 0x2a
 8003818:	609a      	str	r2, [r3, #8]
 800381a:	681a      	ldr	r2, [r3, #0]
 800381c:	f042 0201 	orr.w	r2, r2, #1
 8003820:	e8bd 4010 	ldmia.w	sp!, {r4, lr}
 8003824:	601a      	str	r2, [r3, #0]
 8003826:	f7ff bf9f 	b.w	8003768 <UART_CheckIdleState>
 800382a:	2001      	movs	r0, #1
 800382c:	bd10      	pop	{r4, pc}
	...

08003830 <UARTEx_SetNbDataToProcess>:
 8003830:	b084      	sub	sp, #16
 8003832:	f240 1307 	movw	r3, #263	; 0x107
 8003836:	4a17      	ldr	r2, [pc, #92]	; (8003894 <UARTEx_SetNbDataToProcess+0x64>)
 8003838:	e9cd 2300 	strd	r2, r3, [sp]
 800383c:	4b16      	ldr	r3, [pc, #88]	; (8003898 <UARTEx_SetNbDataToProcess+0x68>)
 800383e:	9302      	str	r3, [sp, #8]
 8003840:	f1a3 2303 	sub.w	r3, r3, #50332416	; 0x3000300
 8003844:	f5a3 3380 	sub.w	r3, r3, #65536	; 0x10000
 8003848:	9303      	str	r3, [sp, #12]
 800384a:	6e43      	ldr	r3, [r0, #100]	; 0x64
 800384c:	b923      	cbnz	r3, 8003858 <UARTEx_SetNbDataToProcess+0x28>
 800384e:	f04f 1301 	mov.w	r3, #65537	; 0x10001
 8003852:	6683      	str	r3, [r0, #104]	; 0x68
 8003854:	b004      	add	sp, #16
 8003856:	4770      	bx	lr
 8003858:	6802      	ldr	r2, [r0, #0]
 800385a:	6893      	ldr	r3, [r2, #8]
 800385c:	6891      	ldr	r1, [r2, #8]
 800385e:	aa04      	add	r2, sp, #16
 8003860:	f3c3 6342 	ubfx	r3, r3, #25, #3
 8003864:	eb02 7151 	add.w	r1, r2, r1, lsr #29
 8003868:	f811 2c10 	ldrb.w	r2, [r1, #-16]
 800386c:	f811 1c08 	ldrb.w	r1, [r1, #-8]
 8003870:	0112      	lsls	r2, r2, #4
 8003872:	fb92 f2f1 	sdiv	r2, r2, r1
 8003876:	f8a0 206a 	strh.w	r2, [r0, #106]	; 0x6a
 800387a:	aa04      	add	r2, sp, #16
 800387c:	4413      	add	r3, r2
 800387e:	f813 2c10 	ldrb.w	r2, [r3, #-16]
 8003882:	f813 3c08 	ldrb.w	r3, [r3, #-8]
 8003886:	0112      	lsls	r2, r2, #4
 8003888:	fb92 f3f3 	sdiv	r3, r2, r3
 800388c:	f8a0 3068 	strh.w	r3, [r0, #104]	; 0x68
 8003890:	e7e0      	b.n	8003854 <UARTEx_SetNbDataToProcess+0x24>
 8003892:	bf00      	nop
 8003894:	03010101 	.word	0x03010101
 8003898:	04020408 	.word	0x04020408

0800389c <HAL_UARTEx_WakeupCallback>:
 800389c:	4770      	bx	lr

0800389e <HAL_UARTEx_RxFifoFullCallback>:
 800389e:	4770      	bx	lr

080038a0 <HAL_UARTEx_TxFifoEmptyCallback>:
 80038a0:	4770      	bx	lr

080038a2 <HAL_UARTEx_DisableFifoMode>:
 80038a2:	f890 307c 	ldrb.w	r3, [r0, #124]	; 0x7c
 80038a6:	2b01      	cmp	r3, #1
 80038a8:	d014      	beq.n	80038d4 <HAL_UARTEx_DisableFifoMode+0x32>
 80038aa:	6802      	ldr	r2, [r0, #0]
 80038ac:	2324      	movs	r3, #36	; 0x24
 80038ae:	f8c0 3080 	str.w	r3, [r0, #128]	; 0x80
 80038b2:	6811      	ldr	r1, [r2, #0]
 80038b4:	6813      	ldr	r3, [r2, #0]
 80038b6:	f021 5100 	bic.w	r1, r1, #536870912	; 0x20000000
 80038ba:	f023 0301 	bic.w	r3, r3, #1
 80038be:	6013      	str	r3, [r2, #0]
 80038c0:	2300      	movs	r3, #0
 80038c2:	6643      	str	r3, [r0, #100]	; 0x64
 80038c4:	6011      	str	r1, [r2, #0]
 80038c6:	2220      	movs	r2, #32
 80038c8:	f880 307c 	strb.w	r3, [r0, #124]	; 0x7c
 80038cc:	f8c0 2080 	str.w	r2, [r0, #128]	; 0x80
 80038d0:	4618      	mov	r0, r3
 80038d2:	4770      	bx	lr
 80038d4:	2002      	movs	r0, #2
 80038d6:	4770      	bx	lr

080038d8 <HAL_UARTEx_SetTxFifoThreshold>:
 80038d8:	b538      	push	{r3, r4, r5, lr}
 80038da:	f890 307c 	ldrb.w	r3, [r0, #124]	; 0x7c
 80038de:	4604      	mov	r4, r0
 80038e0:	2b01      	cmp	r3, #1
 80038e2:	d01b      	beq.n	800391c <HAL_UARTEx_SetTxFifoThreshold+0x44>
 80038e4:	2301      	movs	r3, #1
 80038e6:	f880 307c 	strb.w	r3, [r0, #124]	; 0x7c
 80038ea:	2324      	movs	r3, #36	; 0x24
 80038ec:	f8c0 3080 	str.w	r3, [r0, #128]	; 0x80
 80038f0:	6803      	ldr	r3, [r0, #0]
 80038f2:	681d      	ldr	r5, [r3, #0]
 80038f4:	681a      	ldr	r2, [r3, #0]
 80038f6:	f022 0201 	bic.w	r2, r2, #1
 80038fa:	601a      	str	r2, [r3, #0]
 80038fc:	689a      	ldr	r2, [r3, #8]
 80038fe:	f022 4260 	bic.w	r2, r2, #3758096384	; 0xe0000000
 8003902:	4311      	orrs	r1, r2
 8003904:	6099      	str	r1, [r3, #8]
 8003906:	f7ff ff93 	bl	8003830 <UARTEx_SetNbDataToProcess>
 800390a:	6803      	ldr	r3, [r0, #0]
 800390c:	601d      	str	r5, [r3, #0]
 800390e:	2320      	movs	r3, #32
 8003910:	f8c0 3080 	str.w	r3, [r0, #128]	; 0x80
 8003914:	2000      	movs	r0, #0
 8003916:	f884 007c 	strb.w	r0, [r4, #124]	; 0x7c
 800391a:	bd38      	pop	{r3, r4, r5, pc}
 800391c:	2002      	movs	r0, #2
 800391e:	e7fc      	b.n	800391a <HAL_UARTEx_SetTxFifoThreshold+0x42>

08003920 <HAL_UARTEx_SetRxFifoThreshold>:
 8003920:	b538      	push	{r3, r4, r5, lr}
 8003922:	f890 307c 	ldrb.w	r3, [r0, #124]	; 0x7c
 8003926:	4604      	mov	r4, r0
 8003928:	2b01      	cmp	r3, #1
 800392a:	d01b      	beq.n	8003964 <HAL_UARTEx_SetRxFifoThreshold+0x44>
 800392c:	2301      	movs	r3, #1
 800392e:	f880 307c 	strb.w	r3, [r0, #124]	; 0x7c
 8003932:	2324      	movs	r3, #36	; 0x24
 8003934:	f8c0 3080 	str.w	r3, [r0, #128]	; 0x80
 8003938:	6803      	ldr	r3, [r0, #0]
 800393a:	681d      	ldr	r5, [r3, #0]
 800393c:	681a      	ldr	r2, [r3, #0]
 800393e:	f022 0201 	bic.w	r2, r2, #1
 8003942:	601a      	str	r2, [r3, #0]
 8003944:	689a      	ldr	r2, [r3, #8]
 8003946:	f022 6260 	bic.w	r2, r2, #234881024	; 0xe000000
 800394a:	4311      	orrs	r1, r2
 800394c:	6099      	str	r1, [r3, #8]
 800394e:	f7ff ff6f 	bl	8003830 <UARTEx_SetNbDataToProcess>
 8003952:	6803      	ldr	r3, [r0, #0]
 8003954:	601d      	str	r5, [r3, #0]
 8003956:	2320      	movs	r3, #32
 8003958:	f8c0 3080 	str.w	r3, [r0, #128]	; 0x80
 800395c:	2000      	movs	r0, #0
 800395e:	f884 007c 	strb.w	r0, [r4, #124]	; 0x7c
 8003962:	bd38      	pop	{r3, r4, r5, pc}
 8003964:	2002      	movs	r0, #2
 8003966:	e7fc      	b.n	8003962 <HAL_UARTEx_SetRxFifoThreshold+0x42>

08003968 <USB_CoreReset>:
 8003968:	4b0a      	ldr	r3, [pc, #40]	; (8003994 <USB_CoreReset+0x2c>)
 800396a:	3b01      	subs	r3, #1
 800396c:	d00f      	beq.n	800398e <USB_CoreReset+0x26>
 800396e:	6902      	ldr	r2, [r0, #16]
 8003970:	2a00      	cmp	r2, #0
 8003972:	dafa      	bge.n	800396a <USB_CoreReset+0x2>
 8003974:	6903      	ldr	r3, [r0, #16]
 8003976:	4a07      	ldr	r2, [pc, #28]	; (8003994 <USB_CoreReset+0x2c>)
 8003978:	f043 0301 	orr.w	r3, r3, #1
 800397c:	6103      	str	r3, [r0, #16]
 800397e:	3a01      	subs	r2, #1
 8003980:	d005      	beq.n	800398e <USB_CoreReset+0x26>
 8003982:	6903      	ldr	r3, [r0, #16]
 8003984:	f013 0301 	ands.w	r3, r3, #1
 8003988:	d1f9      	bne.n	800397e <USB_CoreReset+0x16>
 800398a:	4618      	mov	r0, r3
 800398c:	4770      	bx	lr
 800398e:	2003      	movs	r0, #3
 8003990:	4770      	bx	lr
 8003992:	bf00      	nop
 8003994:	00030d41 	.word	0x00030d41

08003998 <USB_CoreInit>:
 8003998:	b084      	sub	sp, #16
 800399a:	b538      	push	{r3, r4, r5, lr}
 800399c:	ad05      	add	r5, sp, #20
 800399e:	4604      	mov	r4, r0
 80039a0:	e885 000e 	stmia.w	r5, {r1, r2, r3}
 80039a4:	9b0a      	ldr	r3, [sp, #40]	; 0x28
 80039a6:	2b01      	cmp	r3, #1
 80039a8:	d126      	bne.n	80039f8 <USB_CoreInit+0x60>
 80039aa:	6b83      	ldr	r3, [r0, #56]	; 0x38
 80039ac:	f423 3380 	bic.w	r3, r3, #65536	; 0x10000
 80039b0:	6383      	str	r3, [r0, #56]	; 0x38
 80039b2:	68c3      	ldr	r3, [r0, #12]
 80039b4:	f423 0384 	bic.w	r3, r3, #4325376	; 0x420000
 80039b8:	f023 0340 	bic.w	r3, r3, #64	; 0x40
 80039bc:	60c3      	str	r3, [r0, #12]
 80039be:	68c3      	ldr	r3, [r0, #12]
 80039c0:	f423 1340 	bic.w	r3, r3, #3145728	; 0x300000
 80039c4:	60c3      	str	r3, [r0, #12]
 80039c6:	9b11      	ldr	r3, [sp, #68]	; 0x44
 80039c8:	2b01      	cmp	r3, #1
 80039ca:	d103      	bne.n	80039d4 <USB_CoreInit+0x3c>
 80039cc:	68c3      	ldr	r3, [r0, #12]
 80039ce:	f443 1380 	orr.w	r3, r3, #1048576	; 0x100000
 80039d2:	60c3      	str	r3, [r0, #12]
 80039d4:	4620      	mov	r0, r4
 80039d6:	f7ff ffc7 	bl	8003968 <USB_CoreReset>
 80039da:	9b08      	ldr	r3, [sp, #32]
 80039dc:	2b01      	cmp	r3, #1
 80039de:	d107      	bne.n	80039f0 <USB_CoreInit+0x58>
 80039e0:	68a3      	ldr	r3, [r4, #8]
 80039e2:	f043 0306 	orr.w	r3, r3, #6
 80039e6:	60a3      	str	r3, [r4, #8]
 80039e8:	68a3      	ldr	r3, [r4, #8]
 80039ea:	f043 0320 	orr.w	r3, r3, #32
 80039ee:	60a3      	str	r3, [r4, #8]
 80039f0:	e8bd 4038 	ldmia.w	sp!, {r3, r4, r5, lr}
 80039f4:	b004      	add	sp, #16
 80039f6:	4770      	bx	lr
 80039f8:	68c3      	ldr	r3, [r0, #12]
 80039fa:	f043 0340 	orr.w	r3, r3, #64	; 0x40
 80039fe:	60c3      	str	r3, [r0, #12]
 8003a00:	f7ff ffb2 	bl	8003968 <USB_CoreReset>
 8003a04:	9b0e      	ldr	r3, [sp, #56]	; 0x38
 8003a06:	b923      	cbnz	r3, 8003a12 <USB_CoreInit+0x7a>
 8003a08:	6ba3      	ldr	r3, [r4, #56]	; 0x38
 8003a0a:	f443 3380 	orr.w	r3, r3, #65536	; 0x10000
 8003a0e:	63a3      	str	r3, [r4, #56]	; 0x38
 8003a10:	e7e3      	b.n	80039da <USB_CoreInit+0x42>
 8003a12:	6ba3      	ldr	r3, [r4, #56]	; 0x38
 8003a14:	f423 3380 	bic.w	r3, r3, #65536	; 0x10000
 8003a18:	e7f9      	b.n	8003a0e <USB_CoreInit+0x76>

08003a1a <USB_DisableGlobalInt>:
 8003a1a:	6883      	ldr	r3, [r0, #8]
 8003a1c:	f023 0301 	bic.w	r3, r3, #1
 8003a20:	6083      	str	r3, [r0, #8]
 8003a22:	2000      	movs	r0, #0
 8003a24:	4770      	bx	lr

08003a26 <USB_SetCurrentMode>:
 8003a26:	b508      	push	{r3, lr}
 8003a28:	68c3      	ldr	r3, [r0, #12]
 8003a2a:	2901      	cmp	r1, #1
 8003a2c:	f023 43c0 	bic.w	r3, r3, #1610612736	; 0x60000000
 8003a30:	60c3      	str	r3, [r0, #12]
 8003a32:	d108      	bne.n	8003a46 <USB_SetCurrentMode+0x20>
 8003a34:	68c3      	ldr	r3, [r0, #12]
 8003a36:	f043 5300 	orr.w	r3, r3, #536870912	; 0x20000000
 8003a3a:	60c3      	str	r3, [r0, #12]
 8003a3c:	2032      	movs	r0, #50	; 0x32
 8003a3e:	f7fd fa37 	bl	8000eb0 <HAL_Delay>
 8003a42:	2000      	movs	r0, #0
 8003a44:	bd08      	pop	{r3, pc}
 8003a46:	b919      	cbnz	r1, 8003a50 <USB_SetCurrentMode+0x2a>
 8003a48:	68c3      	ldr	r3, [r0, #12]
 8003a4a:	f043 4380 	orr.w	r3, r3, #1073741824	; 0x40000000
 8003a4e:	e7f4      	b.n	8003a3a <USB_SetCurrentMode+0x14>
 8003a50:	2001      	movs	r0, #1
 8003a52:	e7f7      	b.n	8003a44 <USB_SetCurrentMode+0x1e>

08003a54 <USB_FlushTxFifo>:
 8003a54:	0189      	lsls	r1, r1, #6
 8003a56:	4a07      	ldr	r2, [pc, #28]	; (8003a74 <USB_FlushTxFifo+0x20>)
 8003a58:	f041 0120 	orr.w	r1, r1, #32
 8003a5c:	6101      	str	r1, [r0, #16]
 8003a5e:	3a01      	subs	r2, #1
 8003a60:	d005      	beq.n	8003a6e <USB_FlushTxFifo+0x1a>
 8003a62:	6903      	ldr	r3, [r0, #16]
 8003a64:	f013 0320 	ands.w	r3, r3, #32
 8003a68:	d1f9      	bne.n	8003a5e <USB_FlushTxFifo+0xa>
 8003a6a:	4618      	mov	r0, r3
 8003a6c:	4770      	bx	lr
 8003a6e:	2003      	movs	r0, #3
 8003a70:	4770      	bx	lr
 8003a72:	bf00      	nop
 8003a74:	00030d41 	.word	0x00030d41

08003a78 <USB_FlushRxFifo>:
 8003a78:	2310      	movs	r3, #16
 8003a7a:	4a06      	ldr	r2, [pc, #24]	; (8003a94 <USB_FlushRxFifo+0x1c>)
 8003a7c:	6103      	str	r3, [r0, #16]
 8003a7e:	3a01      	subs	r2, #1
 8003a80:	d005      	beq.n	8003a8e <USB_FlushRxFifo+0x16>
 8003a82:	6903      	ldr	r3, [r0, #16]
 8003a84:	f013 0310 	ands.w	r3, r3, #16
 8003a88:	d1f9      	bne.n	8003a7e <USB_FlushRxFifo+0x6>
 8003a8a:	4618      	mov	r0, r3
 8003a8c:	4770      	bx	lr
 8003a8e:	2003      	movs	r0, #3
 8003a90:	4770      	bx	lr
 8003a92:	bf00      	nop
 8003a94:	00030d41 	.word	0x00030d41

08003a98 <USB_SetDevSpeed>:
 8003a98:	f8d0 3800 	ldr.w	r3, [r0, #2048]	; 0x800
 8003a9c:	4319      	orrs	r1, r3
 8003a9e:	f8c0 1800 	str.w	r1, [r0, #2048]	; 0x800
 8003aa2:	2000      	movs	r0, #0
 8003aa4:	4770      	bx	lr
	...

08003aa8 <USB_DevInit>:
 8003aa8:	b084      	sub	sp, #16
 8003aaa:	e92d 43f8 	stmdb	sp!, {r3, r4, r5, r6, r7, r8, r9, lr}
 8003aae:	4604      	mov	r4, r0
 8003ab0:	a809      	add	r0, sp, #36	; 0x24
 8003ab2:	460f      	mov	r7, r1
 8003ab4:	e880 000e 	stmia.w	r0, {r1, r2, r3}
 8003ab8:	2300      	movs	r3, #0
 8003aba:	9d13      	ldr	r5, [sp, #76]	; 0x4c
 8003abc:	4619      	mov	r1, r3
 8003abe:	f103 0240 	add.w	r2, r3, #64	; 0x40
 8003ac2:	3301      	adds	r3, #1
 8003ac4:	eb04 0282 	add.w	r2, r4, r2, lsl #2
 8003ac8:	2b0f      	cmp	r3, #15
 8003aca:	6051      	str	r1, [r2, #4]
 8003acc:	d1f7      	bne.n	8003abe <USB_DevInit+0x16>
 8003ace:	f504 6600 	add.w	r6, r4, #2048	; 0x800
 8003ad2:	2d00      	cmp	r5, #0
 8003ad4:	d16c      	bne.n	8003bb0 <USB_DevInit+0x108>
 8003ad6:	6873      	ldr	r3, [r6, #4]
 8003ad8:	f043 0302 	orr.w	r3, r3, #2
 8003adc:	6073      	str	r3, [r6, #4]
 8003ade:	6ba3      	ldr	r3, [r4, #56]	; 0x38
 8003ae0:	f423 1300 	bic.w	r3, r3, #2097152	; 0x200000
 8003ae4:	63a3      	str	r3, [r4, #56]	; 0x38
 8003ae6:	6823      	ldr	r3, [r4, #0]
 8003ae8:	f043 0340 	orr.w	r3, r3, #64	; 0x40
 8003aec:	6023      	str	r3, [r4, #0]
 8003aee:	6823      	ldr	r3, [r4, #0]
 8003af0:	f043 0380 	orr.w	r3, r3, #128	; 0x80
 8003af4:	6023      	str	r3, [r4, #0]
 8003af6:	2300      	movs	r3, #0
 8003af8:	f8c4 3e00 	str.w	r3, [r4, #3584]	; 0xe00
 8003afc:	f8d4 3800 	ldr.w	r3, [r4, #2048]	; 0x800
 8003b00:	f8c4 3800 	str.w	r3, [r4, #2048]	; 0x800
 8003b04:	9b0e      	ldr	r3, [sp, #56]	; 0x38
 8003b06:	2b01      	cmp	r3, #1
 8003b08:	d159      	bne.n	8003bbe <USB_DevInit+0x116>
 8003b0a:	990b      	ldr	r1, [sp, #44]	; 0x2c
 8003b0c:	2900      	cmp	r1, #0
 8003b0e:	d154      	bne.n	8003bba <USB_DevInit+0x112>
 8003b10:	4620      	mov	r0, r4
 8003b12:	f7ff ffc1 	bl	8003a98 <USB_SetDevSpeed>
 8003b16:	2110      	movs	r1, #16
 8003b18:	4620      	mov	r0, r4
 8003b1a:	f7ff ff9b 	bl	8003a54 <USB_FlushTxFifo>
 8003b1e:	4601      	mov	r1, r0
 8003b20:	4620      	mov	r0, r4
 8003b22:	f7ff ffa9 	bl	8003a78 <USB_FlushRxFifo>
 8003b26:	2800      	cmp	r0, #0
 8003b28:	d14b      	bne.n	8003bc2 <USB_DevInit+0x11a>
 8003b2a:	1c08      	adds	r0, r1, #0
 8003b2c:	bf18      	it	ne
 8003b2e:	2001      	movne	r0, #1
 8003b30:	2300      	movs	r3, #0
 8003b32:	f504 6210 	add.w	r2, r4, #2304	; 0x900
 8003b36:	f04f 4c90 	mov.w	ip, #1207959552	; 0x48000000
 8003b3a:	f04f 6e00 	mov.w	lr, #134217728	; 0x8000000
 8003b3e:	4619      	mov	r1, r3
 8003b40:	f64f 387f 	movw	r8, #64383	; 0xfb7f
 8003b44:	6133      	str	r3, [r6, #16]
 8003b46:	6173      	str	r3, [r6, #20]
 8003b48:	61f3      	str	r3, [r6, #28]
 8003b4a:	42bb      	cmp	r3, r7
 8003b4c:	d13b      	bne.n	8003bc6 <USB_DevInit+0x11e>
 8003b4e:	2100      	movs	r1, #0
 8003b50:	f504 6230 	add.w	r2, r4, #2816	; 0xb00
 8003b54:	f04f 4c90 	mov.w	ip, #1207959552	; 0x48000000
 8003b58:	f04f 6e00 	mov.w	lr, #134217728	; 0x8000000
 8003b5c:	460f      	mov	r7, r1
 8003b5e:	f64f 387f 	movw	r8, #64383	; 0xfb7f
 8003b62:	428b      	cmp	r3, r1
 8003b64:	d142      	bne.n	8003bec <USB_DevInit+0x144>
 8003b66:	6933      	ldr	r3, [r6, #16]
 8003b68:	f423 7380 	bic.w	r3, r3, #256	; 0x100
 8003b6c:	6133      	str	r3, [r6, #16]
 8003b6e:	2300      	movs	r3, #0
 8003b70:	61a3      	str	r3, [r4, #24]
 8003b72:	f06f 4380 	mvn.w	r3, #1073741824	; 0x40000000
 8003b76:	6163      	str	r3, [r4, #20]
 8003b78:	9b0c      	ldr	r3, [sp, #48]	; 0x30
 8003b7a:	b91b      	cbnz	r3, 8003b84 <USB_DevInit+0xdc>
 8003b7c:	69a3      	ldr	r3, [r4, #24]
 8003b7e:	f043 0310 	orr.w	r3, r3, #16
 8003b82:	61a3      	str	r3, [r4, #24]
 8003b84:	69a2      	ldr	r2, [r4, #24]
 8003b86:	4b23      	ldr	r3, [pc, #140]	; (8003c14 <USB_DevInit+0x16c>)
 8003b88:	4313      	orrs	r3, r2
 8003b8a:	61a3      	str	r3, [r4, #24]
 8003b8c:	9b0f      	ldr	r3, [sp, #60]	; 0x3c
 8003b8e:	b11b      	cbz	r3, 8003b98 <USB_DevInit+0xf0>
 8003b90:	69a3      	ldr	r3, [r4, #24]
 8003b92:	f043 0308 	orr.w	r3, r3, #8
 8003b96:	61a3      	str	r3, [r4, #24]
 8003b98:	2d01      	cmp	r5, #1
 8003b9a:	d105      	bne.n	8003ba8 <USB_DevInit+0x100>
 8003b9c:	69a3      	ldr	r3, [r4, #24]
 8003b9e:	f043 4380 	orr.w	r3, r3, #1073741824	; 0x40000000
 8003ba2:	f043 0304 	orr.w	r3, r3, #4
 8003ba6:	61a3      	str	r3, [r4, #24]
 8003ba8:	e8bd 43f8 	ldmia.w	sp!, {r3, r4, r5, r6, r7, r8, r9, lr}
 8003bac:	b004      	add	sp, #16
 8003bae:	4770      	bx	lr
 8003bb0:	6ba3      	ldr	r3, [r4, #56]	; 0x38
 8003bb2:	f443 1300 	orr.w	r3, r3, #2097152	; 0x200000
 8003bb6:	63a3      	str	r3, [r4, #56]	; 0x38
 8003bb8:	e79d      	b.n	8003af6 <USB_DevInit+0x4e>
 8003bba:	4619      	mov	r1, r3
 8003bbc:	e7a8      	b.n	8003b10 <USB_DevInit+0x68>
 8003bbe:	2103      	movs	r1, #3
 8003bc0:	e7a6      	b.n	8003b10 <USB_DevInit+0x68>
 8003bc2:	2001      	movs	r0, #1
 8003bc4:	e7b4      	b.n	8003b30 <USB_DevInit+0x88>
 8003bc6:	f8d2 9000 	ldr.w	r9, [r2]
 8003bca:	f1b9 0f00 	cmp.w	r9, #0
 8003bce:	da0b      	bge.n	8003be8 <USB_DevInit+0x140>
 8003bd0:	b93b      	cbnz	r3, 8003be2 <USB_DevInit+0x13a>
 8003bd2:	f8c2 e000 	str.w	lr, [r2]
 8003bd6:	6111      	str	r1, [r2, #16]
 8003bd8:	3301      	adds	r3, #1
 8003bda:	f8c2 8008 	str.w	r8, [r2, #8]
 8003bde:	3220      	adds	r2, #32
 8003be0:	e7b3      	b.n	8003b4a <USB_DevInit+0xa2>
 8003be2:	f8c2 c000 	str.w	ip, [r2]
 8003be6:	e7f6      	b.n	8003bd6 <USB_DevInit+0x12e>
 8003be8:	6011      	str	r1, [r2, #0]
 8003bea:	e7f4      	b.n	8003bd6 <USB_DevInit+0x12e>
 8003bec:	f8d2 9000 	ldr.w	r9, [r2]
 8003bf0:	f1b9 0f00 	cmp.w	r9, #0
 8003bf4:	da0b      	bge.n	8003c0e <USB_DevInit+0x166>
 8003bf6:	b939      	cbnz	r1, 8003c08 <USB_DevInit+0x160>
 8003bf8:	f8c2 e000 	str.w	lr, [r2]
 8003bfc:	6117      	str	r7, [r2, #16]
 8003bfe:	3101      	adds	r1, #1
 8003c00:	f8c2 8008 	str.w	r8, [r2, #8]
 8003c04:	3220      	adds	r2, #32
 8003c06:	e7ac      	b.n	8003b62 <USB_DevInit+0xba>
 8003c08:	f8c2 c000 	str.w	ip, [r2]
 8003c0c:	e7f6      	b.n	8003bfc <USB_DevInit+0x154>
 8003c0e:	6017      	str	r7, [r2, #0]
 8003c10:	e7f4      	b.n	8003bfc <USB_DevInit+0x154>
 8003c12:	bf00      	nop
 8003c14:	803c3800 	.word	0x803c3800

08003c18 <USB_DevDisconnect>:
 8003c18:	b508      	push	{r3, lr}
 8003c1a:	f8d0 3804 	ldr.w	r3, [r0, #2052]	; 0x804
 8003c1e:	f043 0302 	orr.w	r3, r3, #2
 8003c22:	f8c0 3804 	str.w	r3, [r0, #2052]	; 0x804
 8003c26:	2003      	movs	r0, #3
 8003c28:	f7fd f942 	bl	8000eb0 <HAL_Delay>
 8003c2c:	2000      	movs	r0, #0
 8003c2e:	bd08      	pop	{r3, pc}

08003c30 <__errno>:
 8003c30:	4b01      	ldr	r3, [pc, #4]	; (8003c38 <__errno+0x8>)
 8003c32:	6818      	ldr	r0, [r3, #0]
 8003c34:	4770      	bx	lr
 8003c36:	bf00      	nop
 8003c38:	24000010 	.word	0x24000010

08003c3c <__libc_init_array>:
 8003c3c:	b570      	push	{r4, r5, r6, lr}
 8003c3e:	4e0d      	ldr	r6, [pc, #52]	; (8003c74 <__libc_init_array+0x38>)
 8003c40:	4c0d      	ldr	r4, [pc, #52]	; (8003c78 <__libc_init_array+0x3c>)
 8003c42:	1ba4      	subs	r4, r4, r6
 8003c44:	10a4      	asrs	r4, r4, #2
 8003c46:	2500      	movs	r5, #0
 8003c48:	42a5      	cmp	r5, r4
 8003c4a:	d109      	bne.n	8003c60 <__libc_init_array+0x24>
 8003c4c:	4e0b      	ldr	r6, [pc, #44]	; (8003c7c <__libc_init_array+0x40>)
 8003c4e:	4c0c      	ldr	r4, [pc, #48]	; (8003c80 <__libc_init_array+0x44>)
 8003c50:	f000 ff04 	bl	8004a5c <_init>
 8003c54:	1ba4      	subs	r4, r4, r6
 8003c56:	10a4      	asrs	r4, r4, #2
 8003c58:	2500      	movs	r5, #0
 8003c5a:	42a5      	cmp	r5, r4
 8003c5c:	d105      	bne.n	8003c6a <__libc_init_array+0x2e>
 8003c5e:	bd70      	pop	{r4, r5, r6, pc}
 8003c60:	f856 3025 	ldr.w	r3, [r6, r5, lsl #2]
 8003c64:	4798      	blx	r3
 8003c66:	3501      	adds	r5, #1
 8003c68:	e7ee      	b.n	8003c48 <__libc_init_array+0xc>
 8003c6a:	f856 3025 	ldr.w	r3, [r6, r5, lsl #2]
 8003c6e:	4798      	blx	r3
 8003c70:	3501      	adds	r5, #1
 8003c72:	e7f2      	b.n	8003c5a <__libc_init_array+0x1e>
 8003c74:	08004b7c 	.word	0x08004b7c
 8003c78:	08004b7c 	.word	0x08004b7c
 8003c7c:	08004b7c 	.word	0x08004b7c
 8003c80:	08004b80 	.word	0x08004b80

08003c84 <memset>:
 8003c84:	4402      	add	r2, r0
 8003c86:	4603      	mov	r3, r0
 8003c88:	4293      	cmp	r3, r2
 8003c8a:	d100      	bne.n	8003c8e <memset+0xa>
 8003c8c:	4770      	bx	lr
 8003c8e:	f803 1b01 	strb.w	r1, [r3], #1
 8003c92:	e7f9      	b.n	8003c88 <memset+0x4>

08003c94 <iprintf>:
 8003c94:	b40f      	push	{r0, r1, r2, r3}
 8003c96:	4b0a      	ldr	r3, [pc, #40]	; (8003cc0 <iprintf+0x2c>)
 8003c98:	b513      	push	{r0, r1, r4, lr}
 8003c9a:	681c      	ldr	r4, [r3, #0]
 8003c9c:	b124      	cbz	r4, 8003ca8 <iprintf+0x14>
 8003c9e:	69a3      	ldr	r3, [r4, #24]
 8003ca0:	b913      	cbnz	r3, 8003ca8 <iprintf+0x14>
 8003ca2:	4620      	mov	r0, r4
 8003ca4:	f000 f84e 	bl	8003d44 <__sinit>
 8003ca8:	ab05      	add	r3, sp, #20
 8003caa:	9a04      	ldr	r2, [sp, #16]
 8003cac:	68a1      	ldr	r1, [r4, #8]
 8003cae:	9301      	str	r3, [sp, #4]
 8003cb0:	4620      	mov	r0, r4
 8003cb2:	f000 f955 	bl	8003f60 <_vfiprintf_r>
 8003cb6:	b002      	add	sp, #8
 8003cb8:	e8bd 4010 	ldmia.w	sp!, {r4, lr}
 8003cbc:	b004      	add	sp, #16
 8003cbe:	4770      	bx	lr
 8003cc0:	24000010 	.word	0x24000010

08003cc4 <std>:
 8003cc4:	2300      	movs	r3, #0
 8003cc6:	b510      	push	{r4, lr}
 8003cc8:	4604      	mov	r4, r0
 8003cca:	e9c0 3300 	strd	r3, r3, [r0]
 8003cce:	6083      	str	r3, [r0, #8]
 8003cd0:	8181      	strh	r1, [r0, #12]
 8003cd2:	6643      	str	r3, [r0, #100]	; 0x64
 8003cd4:	81c2      	strh	r2, [r0, #14]
 8003cd6:	e9c0 3304 	strd	r3, r3, [r0, #16]
 8003cda:	6183      	str	r3, [r0, #24]
 8003cdc:	4619      	mov	r1, r3
 8003cde:	2208      	movs	r2, #8
 8003ce0:	305c      	adds	r0, #92	; 0x5c
 8003ce2:	f7ff ffcf 	bl	8003c84 <memset>
 8003ce6:	4b05      	ldr	r3, [pc, #20]	; (8003cfc <std+0x38>)
 8003ce8:	6263      	str	r3, [r4, #36]	; 0x24
 8003cea:	4b05      	ldr	r3, [pc, #20]	; (8003d00 <std+0x3c>)
 8003cec:	62a3      	str	r3, [r4, #40]	; 0x28
 8003cee:	4b05      	ldr	r3, [pc, #20]	; (8003d04 <std+0x40>)
 8003cf0:	62e3      	str	r3, [r4, #44]	; 0x2c
 8003cf2:	4b05      	ldr	r3, [pc, #20]	; (8003d08 <std+0x44>)
 8003cf4:	6224      	str	r4, [r4, #32]
 8003cf6:	6323      	str	r3, [r4, #48]	; 0x30
 8003cf8:	bd10      	pop	{r4, pc}
 8003cfa:	bf00      	nop
 8003cfc:	080044bd 	.word	0x080044bd
 8003d00:	080044df 	.word	0x080044df
 8003d04:	08004517 	.word	0x08004517
 8003d08:	0800453b 	.word	0x0800453b

08003d0c <_cleanup_r>:
 8003d0c:	4901      	ldr	r1, [pc, #4]	; (8003d14 <_cleanup_r+0x8>)
 8003d0e:	f000 b885 	b.w	8003e1c <_fwalk_reent>
 8003d12:	bf00      	nop
 8003d14:	08004815 	.word	0x08004815

08003d18 <__sfmoreglue>:
 8003d18:	b570      	push	{r4, r5, r6, lr}
 8003d1a:	1e4a      	subs	r2, r1, #1
 8003d1c:	2568      	movs	r5, #104	; 0x68
 8003d1e:	4355      	muls	r5, r2
 8003d20:	460e      	mov	r6, r1
 8003d22:	f105 0174 	add.w	r1, r5, #116	; 0x74
 8003d26:	f000 f897 	bl	8003e58 <_malloc_r>
 8003d2a:	4604      	mov	r4, r0
 8003d2c:	b140      	cbz	r0, 8003d40 <__sfmoreglue+0x28>
 8003d2e:	2100      	movs	r1, #0
 8003d30:	e9c0 1600 	strd	r1, r6, [r0]
 8003d34:	300c      	adds	r0, #12
 8003d36:	60a0      	str	r0, [r4, #8]
 8003d38:	f105 0268 	add.w	r2, r5, #104	; 0x68
 8003d3c:	f7ff ffa2 	bl	8003c84 <memset>
 8003d40:	4620      	mov	r0, r4
 8003d42:	bd70      	pop	{r4, r5, r6, pc}

08003d44 <__sinit>:
 8003d44:	6983      	ldr	r3, [r0, #24]
 8003d46:	b510      	push	{r4, lr}
 8003d48:	4604      	mov	r4, r0
 8003d4a:	bb33      	cbnz	r3, 8003d9a <__sinit+0x56>
 8003d4c:	e9c0 3312 	strd	r3, r3, [r0, #72]	; 0x48
 8003d50:	6503      	str	r3, [r0, #80]	; 0x50
 8003d52:	4b12      	ldr	r3, [pc, #72]	; (8003d9c <__sinit+0x58>)
 8003d54:	4a12      	ldr	r2, [pc, #72]	; (8003da0 <__sinit+0x5c>)
 8003d56:	681b      	ldr	r3, [r3, #0]
 8003d58:	6282      	str	r2, [r0, #40]	; 0x28
 8003d5a:	4298      	cmp	r0, r3
 8003d5c:	bf04      	itt	eq
 8003d5e:	2301      	moveq	r3, #1
 8003d60:	6183      	streq	r3, [r0, #24]
 8003d62:	f000 f81f 	bl	8003da4 <__sfp>
 8003d66:	6060      	str	r0, [r4, #4]
 8003d68:	4620      	mov	r0, r4
 8003d6a:	f000 f81b 	bl	8003da4 <__sfp>
 8003d6e:	60a0      	str	r0, [r4, #8]
 8003d70:	4620      	mov	r0, r4
 8003d72:	f000 f817 	bl	8003da4 <__sfp>
 8003d76:	2200      	movs	r2, #0
 8003d78:	60e0      	str	r0, [r4, #12]
 8003d7a:	2104      	movs	r1, #4
 8003d7c:	6860      	ldr	r0, [r4, #4]
 8003d7e:	f7ff ffa1 	bl	8003cc4 <std>
 8003d82:	2201      	movs	r2, #1
 8003d84:	2109      	movs	r1, #9
 8003d86:	68a0      	ldr	r0, [r4, #8]
 8003d88:	f7ff ff9c 	bl	8003cc4 <std>
 8003d8c:	2202      	movs	r2, #2
 8003d8e:	2112      	movs	r1, #18
 8003d90:	68e0      	ldr	r0, [r4, #12]
 8003d92:	f7ff ff97 	bl	8003cc4 <std>
 8003d96:	2301      	movs	r3, #1
 8003d98:	61a3      	str	r3, [r4, #24]
 8003d9a:	bd10      	pop	{r4, pc}
 8003d9c:	08004adc 	.word	0x08004adc
 8003da0:	08003d0d 	.word	0x08003d0d

08003da4 <__sfp>:
 8003da4:	b5f8      	push	{r3, r4, r5, r6, r7, lr}
 8003da6:	4b1b      	ldr	r3, [pc, #108]	; (8003e14 <__sfp+0x70>)
 8003da8:	681e      	ldr	r6, [r3, #0]
 8003daa:	69b3      	ldr	r3, [r6, #24]
 8003dac:	4607      	mov	r7, r0
 8003dae:	b913      	cbnz	r3, 8003db6 <__sfp+0x12>
 8003db0:	4630      	mov	r0, r6
 8003db2:	f7ff ffc7 	bl	8003d44 <__sinit>
 8003db6:	3648      	adds	r6, #72	; 0x48
 8003db8:	e9d6 3401 	ldrd	r3, r4, [r6, #4]
 8003dbc:	3b01      	subs	r3, #1
 8003dbe:	d503      	bpl.n	8003dc8 <__sfp+0x24>
 8003dc0:	6833      	ldr	r3, [r6, #0]
 8003dc2:	b133      	cbz	r3, 8003dd2 <__sfp+0x2e>
 8003dc4:	6836      	ldr	r6, [r6, #0]
 8003dc6:	e7f7      	b.n	8003db8 <__sfp+0x14>
 8003dc8:	f9b4 500c 	ldrsh.w	r5, [r4, #12]
 8003dcc:	b16d      	cbz	r5, 8003dea <__sfp+0x46>
 8003dce:	3468      	adds	r4, #104	; 0x68
 8003dd0:	e7f4      	b.n	8003dbc <__sfp+0x18>
 8003dd2:	2104      	movs	r1, #4
 8003dd4:	4638      	mov	r0, r7
 8003dd6:	f7ff ff9f 	bl	8003d18 <__sfmoreglue>
 8003dda:	6030      	str	r0, [r6, #0]
 8003ddc:	2800      	cmp	r0, #0
 8003dde:	d1f1      	bne.n	8003dc4 <__sfp+0x20>
 8003de0:	230c      	movs	r3, #12
 8003de2:	603b      	str	r3, [r7, #0]
 8003de4:	4604      	mov	r4, r0
 8003de6:	4620      	mov	r0, r4
 8003de8:	bdf8      	pop	{r3, r4, r5, r6, r7, pc}
 8003dea:	4b0b      	ldr	r3, [pc, #44]	; (8003e18 <__sfp+0x74>)
 8003dec:	6665      	str	r5, [r4, #100]	; 0x64
 8003dee:	e9c4 5500 	strd	r5, r5, [r4]
 8003df2:	60a5      	str	r5, [r4, #8]
 8003df4:	e9c4 3503 	strd	r3, r5, [r4, #12]
 8003df8:	e9c4 5505 	strd	r5, r5, [r4, #20]
 8003dfc:	2208      	movs	r2, #8
 8003dfe:	4629      	mov	r1, r5
 8003e00:	f104 005c 	add.w	r0, r4, #92	; 0x5c
 8003e04:	f7ff ff3e 	bl	8003c84 <memset>
 8003e08:	e9c4 550d 	strd	r5, r5, [r4, #52]	; 0x34
 8003e0c:	e9c4 5512 	strd	r5, r5, [r4, #72]	; 0x48
 8003e10:	e7e9      	b.n	8003de6 <__sfp+0x42>
 8003e12:	bf00      	nop
 8003e14:	08004adc 	.word	0x08004adc
 8003e18:	ffff0001 	.word	0xffff0001

08003e1c <_fwalk_reent>:
 8003e1c:	e92d 43f8 	stmdb	sp!, {r3, r4, r5, r6, r7, r8, r9, lr}
 8003e20:	4680      	mov	r8, r0
 8003e22:	4689      	mov	r9, r1
 8003e24:	f100 0448 	add.w	r4, r0, #72	; 0x48
 8003e28:	2600      	movs	r6, #0
 8003e2a:	b914      	cbnz	r4, 8003e32 <_fwalk_reent+0x16>
 8003e2c:	4630      	mov	r0, r6
 8003e2e:	e8bd 83f8 	ldmia.w	sp!, {r3, r4, r5, r6, r7, r8, r9, pc}
 8003e32:	e9d4 7501 	ldrd	r7, r5, [r4, #4]
 8003e36:	3f01      	subs	r7, #1
 8003e38:	d501      	bpl.n	8003e3e <_fwalk_reent+0x22>
 8003e3a:	6824      	ldr	r4, [r4, #0]
 8003e3c:	e7f5      	b.n	8003e2a <_fwalk_reent+0xe>
 8003e3e:	89ab      	ldrh	r3, [r5, #12]
 8003e40:	2b01      	cmp	r3, #1
 8003e42:	d907      	bls.n	8003e54 <_fwalk_reent+0x38>
 8003e44:	f9b5 300e 	ldrsh.w	r3, [r5, #14]
 8003e48:	3301      	adds	r3, #1
 8003e4a:	d003      	beq.n	8003e54 <_fwalk_reent+0x38>
 8003e4c:	4629      	mov	r1, r5
 8003e4e:	4640      	mov	r0, r8
 8003e50:	47c8      	blx	r9
 8003e52:	4306      	orrs	r6, r0
 8003e54:	3568      	adds	r5, #104	; 0x68
 8003e56:	e7ee      	b.n	8003e36 <_fwalk_reent+0x1a>

08003e58 <_malloc_r>:
 8003e58:	b570      	push	{r4, r5, r6, lr}
 8003e5a:	1ccd      	adds	r5, r1, #3
 8003e5c:	f025 0503 	bic.w	r5, r5, #3
 8003e60:	3508      	adds	r5, #8
 8003e62:	2d0c      	cmp	r5, #12
 8003e64:	bf38      	it	cc
 8003e66:	250c      	movcc	r5, #12
 8003e68:	2d00      	cmp	r5, #0
 8003e6a:	4606      	mov	r6, r0
 8003e6c:	db01      	blt.n	8003e72 <_malloc_r+0x1a>
 8003e6e:	42a9      	cmp	r1, r5
 8003e70:	d903      	bls.n	8003e7a <_malloc_r+0x22>
 8003e72:	230c      	movs	r3, #12
 8003e74:	6033      	str	r3, [r6, #0]
 8003e76:	2000      	movs	r0, #0
 8003e78:	bd70      	pop	{r4, r5, r6, pc}
 8003e7a:	f000 fd6b 	bl	8004954 <__malloc_lock>
 8003e7e:	4a21      	ldr	r2, [pc, #132]	; (8003f04 <_malloc_r+0xac>)
 8003e80:	6814      	ldr	r4, [r2, #0]
 8003e82:	4621      	mov	r1, r4
 8003e84:	b991      	cbnz	r1, 8003eac <_malloc_r+0x54>
 8003e86:	4c20      	ldr	r4, [pc, #128]	; (8003f08 <_malloc_r+0xb0>)
 8003e88:	6823      	ldr	r3, [r4, #0]
 8003e8a:	b91b      	cbnz	r3, 8003e94 <_malloc_r+0x3c>
 8003e8c:	4630      	mov	r0, r6
 8003e8e:	f000 fb05 	bl	800449c <_sbrk_r>
 8003e92:	6020      	str	r0, [r4, #0]
 8003e94:	4629      	mov	r1, r5
 8003e96:	4630      	mov	r0, r6
 8003e98:	f000 fb00 	bl	800449c <_sbrk_r>
 8003e9c:	1c43      	adds	r3, r0, #1
 8003e9e:	d124      	bne.n	8003eea <_malloc_r+0x92>
 8003ea0:	230c      	movs	r3, #12
 8003ea2:	6033      	str	r3, [r6, #0]
 8003ea4:	4630      	mov	r0, r6
 8003ea6:	f000 fd56 	bl	8004956 <__malloc_unlock>
 8003eaa:	e7e4      	b.n	8003e76 <_malloc_r+0x1e>
 8003eac:	680b      	ldr	r3, [r1, #0]
 8003eae:	1b5b      	subs	r3, r3, r5
 8003eb0:	d418      	bmi.n	8003ee4 <_malloc_r+0x8c>
 8003eb2:	2b0b      	cmp	r3, #11
 8003eb4:	d90f      	bls.n	8003ed6 <_malloc_r+0x7e>
 8003eb6:	600b      	str	r3, [r1, #0]
 8003eb8:	50cd      	str	r5, [r1, r3]
 8003eba:	18cc      	adds	r4, r1, r3
 8003ebc:	4630      	mov	r0, r6
 8003ebe:	f000 fd4a 	bl	8004956 <__malloc_unlock>
 8003ec2:	f104 000b 	add.w	r0, r4, #11
 8003ec6:	1d23      	adds	r3, r4, #4
 8003ec8:	f020 0007 	bic.w	r0, r0, #7
 8003ecc:	1ac3      	subs	r3, r0, r3
 8003ece:	d0d3      	beq.n	8003e78 <_malloc_r+0x20>
 8003ed0:	425a      	negs	r2, r3
 8003ed2:	50e2      	str	r2, [r4, r3]
 8003ed4:	e7d0      	b.n	8003e78 <_malloc_r+0x20>
 8003ed6:	428c      	cmp	r4, r1
 8003ed8:	684b      	ldr	r3, [r1, #4]
 8003eda:	bf16      	itet	ne
 8003edc:	6063      	strne	r3, [r4, #4]
 8003ede:	6013      	streq	r3, [r2, #0]
 8003ee0:	460c      	movne	r4, r1
 8003ee2:	e7eb      	b.n	8003ebc <_malloc_r+0x64>
 8003ee4:	460c      	mov	r4, r1
 8003ee6:	6849      	ldr	r1, [r1, #4]
 8003ee8:	e7cc      	b.n	8003e84 <_malloc_r+0x2c>
 8003eea:	1cc4      	adds	r4, r0, #3
 8003eec:	f024 0403 	bic.w	r4, r4, #3
 8003ef0:	42a0      	cmp	r0, r4
 8003ef2:	d005      	beq.n	8003f00 <_malloc_r+0xa8>
 8003ef4:	1a21      	subs	r1, r4, r0
 8003ef6:	4630      	mov	r0, r6
 8003ef8:	f000 fad0 	bl	800449c <_sbrk_r>
 8003efc:	3001      	adds	r0, #1
 8003efe:	d0cf      	beq.n	8003ea0 <_malloc_r+0x48>
 8003f00:	6025      	str	r5, [r4, #0]
 8003f02:	e7db      	b.n	8003ebc <_malloc_r+0x64>
 8003f04:	24000154 	.word	0x24000154
 8003f08:	24000158 	.word	0x24000158

08003f0c <__sfputc_r>:
 8003f0c:	6893      	ldr	r3, [r2, #8]
 8003f0e:	3b01      	subs	r3, #1
 8003f10:	2b00      	cmp	r3, #0
 8003f12:	b410      	push	{r4}
 8003f14:	6093      	str	r3, [r2, #8]
 8003f16:	da08      	bge.n	8003f2a <__sfputc_r+0x1e>
 8003f18:	6994      	ldr	r4, [r2, #24]
 8003f1a:	42a3      	cmp	r3, r4
 8003f1c:	db01      	blt.n	8003f22 <__sfputc_r+0x16>
 8003f1e:	290a      	cmp	r1, #10
 8003f20:	d103      	bne.n	8003f2a <__sfputc_r+0x1e>
 8003f22:	f85d 4b04 	ldr.w	r4, [sp], #4
 8003f26:	f000 bb0d 	b.w	8004544 <__swbuf_r>
 8003f2a:	6813      	ldr	r3, [r2, #0]
 8003f2c:	1c58      	adds	r0, r3, #1
 8003f2e:	6010      	str	r0, [r2, #0]
 8003f30:	7019      	strb	r1, [r3, #0]
 8003f32:	4608      	mov	r0, r1
 8003f34:	f85d 4b04 	ldr.w	r4, [sp], #4
 8003f38:	4770      	bx	lr

08003f3a <__sfputs_r>:
 8003f3a:	b5f8      	push	{r3, r4, r5, r6, r7, lr}
 8003f3c:	4606      	mov	r6, r0
 8003f3e:	460f      	mov	r7, r1
 8003f40:	4614      	mov	r4, r2
 8003f42:	18d5      	adds	r5, r2, r3
 8003f44:	42ac      	cmp	r4, r5
 8003f46:	d101      	bne.n	8003f4c <__sfputs_r+0x12>
 8003f48:	2000      	movs	r0, #0
 8003f4a:	e007      	b.n	8003f5c <__sfputs_r+0x22>
 8003f4c:	463a      	mov	r2, r7
 8003f4e:	f814 1b01 	ldrb.w	r1, [r4], #1
 8003f52:	4630      	mov	r0, r6
 8003f54:	f7ff ffda 	bl	8003f0c <__sfputc_r>
 8003f58:	1c43      	adds	r3, r0, #1
 8003f5a:	d1f3      	bne.n	8003f44 <__sfputs_r+0xa>
 8003f5c:	bdf8      	pop	{r3, r4, r5, r6, r7, pc}
	...

08003f60 <_vfiprintf_r>:
 8003f60:	e92d 4ff0 	stmdb	sp!, {r4, r5, r6, r7, r8, r9, sl, fp, lr}
 8003f64:	460c      	mov	r4, r1
 8003f66:	b09d      	sub	sp, #116	; 0x74
 8003f68:	4617      	mov	r7, r2
 8003f6a:	461d      	mov	r5, r3
 8003f6c:	4606      	mov	r6, r0
 8003f6e:	b118      	cbz	r0, 8003f78 <_vfiprintf_r+0x18>
 8003f70:	6983      	ldr	r3, [r0, #24]
 8003f72:	b90b      	cbnz	r3, 8003f78 <_vfiprintf_r+0x18>
 8003f74:	f7ff fee6 	bl	8003d44 <__sinit>
 8003f78:	4b7c      	ldr	r3, [pc, #496]	; (800416c <_vfiprintf_r+0x20c>)
 8003f7a:	429c      	cmp	r4, r3
 8003f7c:	d158      	bne.n	8004030 <_vfiprintf_r+0xd0>
 8003f7e:	6874      	ldr	r4, [r6, #4]
 8003f80:	89a3      	ldrh	r3, [r4, #12]
 8003f82:	0718      	lsls	r0, r3, #28
 8003f84:	d55e      	bpl.n	8004044 <_vfiprintf_r+0xe4>
 8003f86:	6923      	ldr	r3, [r4, #16]
 8003f88:	2b00      	cmp	r3, #0
 8003f8a:	d05b      	beq.n	8004044 <_vfiprintf_r+0xe4>
 8003f8c:	2300      	movs	r3, #0
 8003f8e:	9309      	str	r3, [sp, #36]	; 0x24
 8003f90:	2320      	movs	r3, #32
 8003f92:	f88d 3029 	strb.w	r3, [sp, #41]	; 0x29
 8003f96:	2330      	movs	r3, #48	; 0x30
 8003f98:	f88d 302a 	strb.w	r3, [sp, #42]	; 0x2a
 8003f9c:	9503      	str	r5, [sp, #12]
 8003f9e:	f04f 0b01 	mov.w	fp, #1
 8003fa2:	46b8      	mov	r8, r7
 8003fa4:	4645      	mov	r5, r8
 8003fa6:	f815 3b01 	ldrb.w	r3, [r5], #1
 8003faa:	b10b      	cbz	r3, 8003fb0 <_vfiprintf_r+0x50>
 8003fac:	2b25      	cmp	r3, #37	; 0x25
 8003fae:	d154      	bne.n	800405a <_vfiprintf_r+0xfa>
 8003fb0:	ebb8 0a07 	subs.w	sl, r8, r7
 8003fb4:	d00b      	beq.n	8003fce <_vfiprintf_r+0x6e>
 8003fb6:	4653      	mov	r3, sl
 8003fb8:	463a      	mov	r2, r7
 8003fba:	4621      	mov	r1, r4
 8003fbc:	4630      	mov	r0, r6
 8003fbe:	f7ff ffbc 	bl	8003f3a <__sfputs_r>
 8003fc2:	3001      	adds	r0, #1
 8003fc4:	f000 80c2 	beq.w	800414c <_vfiprintf_r+0x1ec>
 8003fc8:	9b09      	ldr	r3, [sp, #36]	; 0x24
 8003fca:	4453      	add	r3, sl
 8003fcc:	9309      	str	r3, [sp, #36]	; 0x24
 8003fce:	f898 3000 	ldrb.w	r3, [r8]
 8003fd2:	2b00      	cmp	r3, #0
 8003fd4:	f000 80ba 	beq.w	800414c <_vfiprintf_r+0x1ec>
 8003fd8:	2300      	movs	r3, #0
 8003fda:	f04f 32ff 	mov.w	r2, #4294967295
 8003fde:	e9cd 2305 	strd	r2, r3, [sp, #20]
 8003fe2:	9304      	str	r3, [sp, #16]
 8003fe4:	9307      	str	r3, [sp, #28]
 8003fe6:	f88d 3053 	strb.w	r3, [sp, #83]	; 0x53
 8003fea:	931a      	str	r3, [sp, #104]	; 0x68
 8003fec:	46a8      	mov	r8, r5
 8003fee:	2205      	movs	r2, #5
 8003ff0:	f818 1b01 	ldrb.w	r1, [r8], #1
 8003ff4:	485e      	ldr	r0, [pc, #376]	; (8004170 <_vfiprintf_r+0x210>)
 8003ff6:	f7fc f973 	bl	80002e0 <memchr>
 8003ffa:	9b04      	ldr	r3, [sp, #16]
 8003ffc:	bb78      	cbnz	r0, 800405e <_vfiprintf_r+0xfe>
 8003ffe:	06d9      	lsls	r1, r3, #27
 8004000:	bf44      	itt	mi
 8004002:	2220      	movmi	r2, #32
 8004004:	f88d 2053 	strbmi.w	r2, [sp, #83]	; 0x53
 8004008:	071a      	lsls	r2, r3, #28
 800400a:	bf44      	itt	mi
 800400c:	222b      	movmi	r2, #43	; 0x2b
 800400e:	f88d 2053 	strbmi.w	r2, [sp, #83]	; 0x53
 8004012:	782a      	ldrb	r2, [r5, #0]
 8004014:	2a2a      	cmp	r2, #42	; 0x2a
 8004016:	d02a      	beq.n	800406e <_vfiprintf_r+0x10e>
 8004018:	9a07      	ldr	r2, [sp, #28]
 800401a:	46a8      	mov	r8, r5
 800401c:	2000      	movs	r0, #0
 800401e:	250a      	movs	r5, #10
 8004020:	4641      	mov	r1, r8
 8004022:	f811 3b01 	ldrb.w	r3, [r1], #1
 8004026:	3b30      	subs	r3, #48	; 0x30
 8004028:	2b09      	cmp	r3, #9
 800402a:	d969      	bls.n	8004100 <_vfiprintf_r+0x1a0>
 800402c:	b360      	cbz	r0, 8004088 <_vfiprintf_r+0x128>
 800402e:	e024      	b.n	800407a <_vfiprintf_r+0x11a>
 8004030:	4b50      	ldr	r3, [pc, #320]	; (8004174 <_vfiprintf_r+0x214>)
 8004032:	429c      	cmp	r4, r3
 8004034:	d101      	bne.n	800403a <_vfiprintf_r+0xda>
 8004036:	68b4      	ldr	r4, [r6, #8]
 8004038:	e7a2      	b.n	8003f80 <_vfiprintf_r+0x20>
 800403a:	4b4f      	ldr	r3, [pc, #316]	; (8004178 <_vfiprintf_r+0x218>)
 800403c:	429c      	cmp	r4, r3
 800403e:	bf08      	it	eq
 8004040:	68f4      	ldreq	r4, [r6, #12]
 8004042:	e79d      	b.n	8003f80 <_vfiprintf_r+0x20>
 8004044:	4621      	mov	r1, r4
 8004046:	4630      	mov	r0, r6
 8004048:	f000 fae0 	bl	800460c <__swsetup_r>
 800404c:	2800      	cmp	r0, #0
 800404e:	d09d      	beq.n	8003f8c <_vfiprintf_r+0x2c>
 8004050:	f04f 30ff 	mov.w	r0, #4294967295
 8004054:	b01d      	add	sp, #116	; 0x74
 8004056:	e8bd 8ff0 	ldmia.w	sp!, {r4, r5, r6, r7, r8, r9, sl, fp, pc}
 800405a:	46a8      	mov	r8, r5
 800405c:	e7a2      	b.n	8003fa4 <_vfiprintf_r+0x44>
 800405e:	4a44      	ldr	r2, [pc, #272]	; (8004170 <_vfiprintf_r+0x210>)
 8004060:	1a80      	subs	r0, r0, r2
 8004062:	fa0b f000 	lsl.w	r0, fp, r0
 8004066:	4318      	orrs	r0, r3
 8004068:	9004      	str	r0, [sp, #16]
 800406a:	4645      	mov	r5, r8
 800406c:	e7be      	b.n	8003fec <_vfiprintf_r+0x8c>
 800406e:	9a03      	ldr	r2, [sp, #12]
 8004070:	1d11      	adds	r1, r2, #4
 8004072:	6812      	ldr	r2, [r2, #0]
 8004074:	9103      	str	r1, [sp, #12]
 8004076:	2a00      	cmp	r2, #0
 8004078:	db01      	blt.n	800407e <_vfiprintf_r+0x11e>
 800407a:	9207      	str	r2, [sp, #28]
 800407c:	e004      	b.n	8004088 <_vfiprintf_r+0x128>
 800407e:	4252      	negs	r2, r2
 8004080:	f043 0302 	orr.w	r3, r3, #2
 8004084:	9207      	str	r2, [sp, #28]
 8004086:	9304      	str	r3, [sp, #16]
 8004088:	f898 3000 	ldrb.w	r3, [r8]
 800408c:	2b2e      	cmp	r3, #46	; 0x2e
 800408e:	d10e      	bne.n	80040ae <_vfiprintf_r+0x14e>
 8004090:	f898 3001 	ldrb.w	r3, [r8, #1]
 8004094:	2b2a      	cmp	r3, #42	; 0x2a
 8004096:	d138      	bne.n	800410a <_vfiprintf_r+0x1aa>
 8004098:	9b03      	ldr	r3, [sp, #12]
 800409a:	1d1a      	adds	r2, r3, #4
 800409c:	681b      	ldr	r3, [r3, #0]
 800409e:	9203      	str	r2, [sp, #12]
 80040a0:	2b00      	cmp	r3, #0
 80040a2:	bfb8      	it	lt
 80040a4:	f04f 33ff 	movlt.w	r3, #4294967295
 80040a8:	f108 0802 	add.w	r8, r8, #2
 80040ac:	9305      	str	r3, [sp, #20]
 80040ae:	4d33      	ldr	r5, [pc, #204]	; (800417c <_vfiprintf_r+0x21c>)
 80040b0:	f898 1000 	ldrb.w	r1, [r8]
 80040b4:	2203      	movs	r2, #3
 80040b6:	4628      	mov	r0, r5
 80040b8:	f7fc f912 	bl	80002e0 <memchr>
 80040bc:	b140      	cbz	r0, 80040d0 <_vfiprintf_r+0x170>
 80040be:	2340      	movs	r3, #64	; 0x40
 80040c0:	1b40      	subs	r0, r0, r5
 80040c2:	fa03 f000 	lsl.w	r0, r3, r0
 80040c6:	9b04      	ldr	r3, [sp, #16]
 80040c8:	4303      	orrs	r3, r0
 80040ca:	f108 0801 	add.w	r8, r8, #1
 80040ce:	9304      	str	r3, [sp, #16]
 80040d0:	f898 1000 	ldrb.w	r1, [r8]
 80040d4:	482a      	ldr	r0, [pc, #168]	; (8004180 <_vfiprintf_r+0x220>)
 80040d6:	f88d 1028 	strb.w	r1, [sp, #40]	; 0x28
 80040da:	2206      	movs	r2, #6
 80040dc:	f108 0701 	add.w	r7, r8, #1
 80040e0:	f7fc f8fe 	bl	80002e0 <memchr>
 80040e4:	2800      	cmp	r0, #0
 80040e6:	d037      	beq.n	8004158 <_vfiprintf_r+0x1f8>
 80040e8:	4b26      	ldr	r3, [pc, #152]	; (8004184 <_vfiprintf_r+0x224>)
 80040ea:	bb1b      	cbnz	r3, 8004134 <_vfiprintf_r+0x1d4>
 80040ec:	9b03      	ldr	r3, [sp, #12]
 80040ee:	3307      	adds	r3, #7
 80040f0:	f023 0307 	bic.w	r3, r3, #7
 80040f4:	3308      	adds	r3, #8
 80040f6:	9303      	str	r3, [sp, #12]
 80040f8:	9b09      	ldr	r3, [sp, #36]	; 0x24
 80040fa:	444b      	add	r3, r9
 80040fc:	9309      	str	r3, [sp, #36]	; 0x24
 80040fe:	e750      	b.n	8003fa2 <_vfiprintf_r+0x42>
 8004100:	fb05 3202 	mla	r2, r5, r2, r3
 8004104:	2001      	movs	r0, #1
 8004106:	4688      	mov	r8, r1
 8004108:	e78a      	b.n	8004020 <_vfiprintf_r+0xc0>
 800410a:	2300      	movs	r3, #0
 800410c:	f108 0801 	add.w	r8, r8, #1
 8004110:	9305      	str	r3, [sp, #20]
 8004112:	4619      	mov	r1, r3
 8004114:	250a      	movs	r5, #10
 8004116:	4640      	mov	r0, r8
 8004118:	f810 2b01 	ldrb.w	r2, [r0], #1
 800411c:	3a30      	subs	r2, #48	; 0x30
 800411e:	2a09      	cmp	r2, #9
 8004120:	d903      	bls.n	800412a <_vfiprintf_r+0x1ca>
 8004122:	2b00      	cmp	r3, #0
 8004124:	d0c3      	beq.n	80040ae <_vfiprintf_r+0x14e>
 8004126:	9105      	str	r1, [sp, #20]
 8004128:	e7c1      	b.n	80040ae <_vfiprintf_r+0x14e>
 800412a:	fb05 2101 	mla	r1, r5, r1, r2
 800412e:	2301      	movs	r3, #1
 8004130:	4680      	mov	r8, r0
 8004132:	e7f0      	b.n	8004116 <_vfiprintf_r+0x1b6>
 8004134:	ab03      	add	r3, sp, #12
 8004136:	9300      	str	r3, [sp, #0]
 8004138:	4622      	mov	r2, r4
 800413a:	4b13      	ldr	r3, [pc, #76]	; (8004188 <_vfiprintf_r+0x228>)
 800413c:	a904      	add	r1, sp, #16
 800413e:	4630      	mov	r0, r6
 8004140:	f3af 8000 	nop.w
 8004144:	f1b0 3fff 	cmp.w	r0, #4294967295
 8004148:	4681      	mov	r9, r0
 800414a:	d1d5      	bne.n	80040f8 <_vfiprintf_r+0x198>
 800414c:	89a3      	ldrh	r3, [r4, #12]
 800414e:	065b      	lsls	r3, r3, #25
 8004150:	f53f af7e 	bmi.w	8004050 <_vfiprintf_r+0xf0>
 8004154:	9809      	ldr	r0, [sp, #36]	; 0x24
 8004156:	e77d      	b.n	8004054 <_vfiprintf_r+0xf4>
 8004158:	ab03      	add	r3, sp, #12
 800415a:	9300      	str	r3, [sp, #0]
 800415c:	4622      	mov	r2, r4
 800415e:	4b0a      	ldr	r3, [pc, #40]	; (8004188 <_vfiprintf_r+0x228>)
 8004160:	a904      	add	r1, sp, #16
 8004162:	4630      	mov	r0, r6
 8004164:	f000 f888 	bl	8004278 <_printf_i>
 8004168:	e7ec      	b.n	8004144 <_vfiprintf_r+0x1e4>
 800416a:	bf00      	nop
 800416c:	08004b00 	.word	0x08004b00
 8004170:	08004b40 	.word	0x08004b40
 8004174:	08004b20 	.word	0x08004b20
 8004178:	08004ae0 	.word	0x08004ae0
 800417c:	08004b46 	.word	0x08004b46
 8004180:	08004b4a 	.word	0x08004b4a
 8004184:	00000000 	.word	0x00000000
 8004188:	08003f3b 	.word	0x08003f3b

0800418c <_printf_common>:
 800418c:	e92d 47f0 	stmdb	sp!, {r4, r5, r6, r7, r8, r9, sl, lr}
 8004190:	4691      	mov	r9, r2
 8004192:	461f      	mov	r7, r3
 8004194:	688a      	ldr	r2, [r1, #8]
 8004196:	690b      	ldr	r3, [r1, #16]
 8004198:	f8dd 8020 	ldr.w	r8, [sp, #32]
 800419c:	4293      	cmp	r3, r2
 800419e:	bfb8      	it	lt
 80041a0:	4613      	movlt	r3, r2
 80041a2:	f8c9 3000 	str.w	r3, [r9]
 80041a6:	f891 2043 	ldrb.w	r2, [r1, #67]	; 0x43
 80041aa:	4606      	mov	r6, r0
 80041ac:	460c      	mov	r4, r1
 80041ae:	b112      	cbz	r2, 80041b6 <_printf_common+0x2a>
 80041b0:	3301      	adds	r3, #1
 80041b2:	f8c9 3000 	str.w	r3, [r9]
 80041b6:	6823      	ldr	r3, [r4, #0]
 80041b8:	0699      	lsls	r1, r3, #26
 80041ba:	bf42      	ittt	mi
 80041bc:	f8d9 3000 	ldrmi.w	r3, [r9]
 80041c0:	3302      	addmi	r3, #2
 80041c2:	f8c9 3000 	strmi.w	r3, [r9]
 80041c6:	6825      	ldr	r5, [r4, #0]
 80041c8:	f015 0506 	ands.w	r5, r5, #6
 80041cc:	d107      	bne.n	80041de <_printf_common+0x52>
 80041ce:	f104 0a19 	add.w	sl, r4, #25
 80041d2:	68e3      	ldr	r3, [r4, #12]
 80041d4:	f8d9 2000 	ldr.w	r2, [r9]
 80041d8:	1a9b      	subs	r3, r3, r2
 80041da:	42ab      	cmp	r3, r5
 80041dc:	dc28      	bgt.n	8004230 <_printf_common+0xa4>
 80041de:	f894 3043 	ldrb.w	r3, [r4, #67]	; 0x43
 80041e2:	6822      	ldr	r2, [r4, #0]
 80041e4:	3300      	adds	r3, #0
 80041e6:	bf18      	it	ne
 80041e8:	2301      	movne	r3, #1
 80041ea:	0692      	lsls	r2, r2, #26
 80041ec:	d42d      	bmi.n	800424a <_printf_common+0xbe>
 80041ee:	f104 0243 	add.w	r2, r4, #67	; 0x43
 80041f2:	4639      	mov	r1, r7
 80041f4:	4630      	mov	r0, r6
 80041f6:	47c0      	blx	r8
 80041f8:	3001      	adds	r0, #1
 80041fa:	d020      	beq.n	800423e <_printf_common+0xb2>
 80041fc:	6823      	ldr	r3, [r4, #0]
 80041fe:	68e5      	ldr	r5, [r4, #12]
 8004200:	f8d9 2000 	ldr.w	r2, [r9]
 8004204:	f003 0306 	and.w	r3, r3, #6
 8004208:	2b04      	cmp	r3, #4
 800420a:	bf08      	it	eq
 800420c:	1aad      	subeq	r5, r5, r2
 800420e:	68a3      	ldr	r3, [r4, #8]
 8004210:	6922      	ldr	r2, [r4, #16]
 8004212:	bf0c      	ite	eq
 8004214:	ea25 75e5 	biceq.w	r5, r5, r5, asr #31
 8004218:	2500      	movne	r5, #0
 800421a:	4293      	cmp	r3, r2
 800421c:	bfc4      	itt	gt
 800421e:	1a9b      	subgt	r3, r3, r2
 8004220:	18ed      	addgt	r5, r5, r3
 8004222:	f04f 0900 	mov.w	r9, #0
 8004226:	341a      	adds	r4, #26
 8004228:	454d      	cmp	r5, r9
 800422a:	d11a      	bne.n	8004262 <_printf_common+0xd6>
 800422c:	2000      	movs	r0, #0
 800422e:	e008      	b.n	8004242 <_printf_common+0xb6>
 8004230:	2301      	movs	r3, #1
 8004232:	4652      	mov	r2, sl
 8004234:	4639      	mov	r1, r7
 8004236:	4630      	mov	r0, r6
 8004238:	47c0      	blx	r8
 800423a:	3001      	adds	r0, #1
 800423c:	d103      	bne.n	8004246 <_printf_common+0xba>
 800423e:	f04f 30ff 	mov.w	r0, #4294967295
 8004242:	e8bd 87f0 	ldmia.w	sp!, {r4, r5, r6, r7, r8, r9, sl, pc}
 8004246:	3501      	adds	r5, #1
 8004248:	e7c3      	b.n	80041d2 <_printf_common+0x46>
 800424a:	18e1      	adds	r1, r4, r3
 800424c:	1c5a      	adds	r2, r3, #1
 800424e:	2030      	movs	r0, #48	; 0x30
 8004250:	f881 0043 	strb.w	r0, [r1, #67]	; 0x43
 8004254:	4422      	add	r2, r4
 8004256:	f894 1045 	ldrb.w	r1, [r4, #69]	; 0x45
 800425a:	f882 1043 	strb.w	r1, [r2, #67]	; 0x43
 800425e:	3302      	adds	r3, #2
 8004260:	e7c5      	b.n	80041ee <_printf_common+0x62>
 8004262:	2301      	movs	r3, #1
 8004264:	4622      	mov	r2, r4
 8004266:	4639      	mov	r1, r7
 8004268:	4630      	mov	r0, r6
 800426a:	47c0      	blx	r8
 800426c:	3001      	adds	r0, #1
 800426e:	d0e6      	beq.n	800423e <_printf_common+0xb2>
 8004270:	f109 0901 	add.w	r9, r9, #1
 8004274:	e7d8      	b.n	8004228 <_printf_common+0x9c>
	...

08004278 <_printf_i>:
 8004278:	e92d 43f0 	stmdb	sp!, {r4, r5, r6, r7, r8, r9, lr}
 800427c:	f101 0c43 	add.w	ip, r1, #67	; 0x43
 8004280:	460c      	mov	r4, r1
 8004282:	7e09      	ldrb	r1, [r1, #24]
 8004284:	b085      	sub	sp, #20
 8004286:	296e      	cmp	r1, #110	; 0x6e
 8004288:	4617      	mov	r7, r2
 800428a:	4606      	mov	r6, r0
 800428c:	4698      	mov	r8, r3
 800428e:	9a0c      	ldr	r2, [sp, #48]	; 0x30
 8004290:	f000 80b3 	beq.w	80043fa <_printf_i+0x182>
 8004294:	d822      	bhi.n	80042dc <_printf_i+0x64>
 8004296:	2963      	cmp	r1, #99	; 0x63
 8004298:	d036      	beq.n	8004308 <_printf_i+0x90>
 800429a:	d80a      	bhi.n	80042b2 <_printf_i+0x3a>
 800429c:	2900      	cmp	r1, #0
 800429e:	f000 80b9 	beq.w	8004414 <_printf_i+0x19c>
 80042a2:	2958      	cmp	r1, #88	; 0x58
 80042a4:	f000 8083 	beq.w	80043ae <_printf_i+0x136>
 80042a8:	f104 0542 	add.w	r5, r4, #66	; 0x42
 80042ac:	f884 1042 	strb.w	r1, [r4, #66]	; 0x42
 80042b0:	e032      	b.n	8004318 <_printf_i+0xa0>
 80042b2:	2964      	cmp	r1, #100	; 0x64
 80042b4:	d001      	beq.n	80042ba <_printf_i+0x42>
 80042b6:	2969      	cmp	r1, #105	; 0x69
 80042b8:	d1f6      	bne.n	80042a8 <_printf_i+0x30>
 80042ba:	6820      	ldr	r0, [r4, #0]
 80042bc:	6813      	ldr	r3, [r2, #0]
 80042be:	0605      	lsls	r5, r0, #24
 80042c0:	f103 0104 	add.w	r1, r3, #4
 80042c4:	d52a      	bpl.n	800431c <_printf_i+0xa4>
 80042c6:	681b      	ldr	r3, [r3, #0]
 80042c8:	6011      	str	r1, [r2, #0]
 80042ca:	2b00      	cmp	r3, #0
 80042cc:	da03      	bge.n	80042d6 <_printf_i+0x5e>
 80042ce:	222d      	movs	r2, #45	; 0x2d
 80042d0:	425b      	negs	r3, r3
 80042d2:	f884 2043 	strb.w	r2, [r4, #67]	; 0x43
 80042d6:	486f      	ldr	r0, [pc, #444]	; (8004494 <_printf_i+0x21c>)
 80042d8:	220a      	movs	r2, #10
 80042da:	e039      	b.n	8004350 <_printf_i+0xd8>
 80042dc:	2973      	cmp	r1, #115	; 0x73
 80042de:	f000 809d 	beq.w	800441c <_printf_i+0x1a4>
 80042e2:	d808      	bhi.n	80042f6 <_printf_i+0x7e>
 80042e4:	296f      	cmp	r1, #111	; 0x6f
 80042e6:	d020      	beq.n	800432a <_printf_i+0xb2>
 80042e8:	2970      	cmp	r1, #112	; 0x70
 80042ea:	d1dd      	bne.n	80042a8 <_printf_i+0x30>
 80042ec:	6823      	ldr	r3, [r4, #0]
 80042ee:	f043 0320 	orr.w	r3, r3, #32
 80042f2:	6023      	str	r3, [r4, #0]
 80042f4:	e003      	b.n	80042fe <_printf_i+0x86>
 80042f6:	2975      	cmp	r1, #117	; 0x75
 80042f8:	d017      	beq.n	800432a <_printf_i+0xb2>
 80042fa:	2978      	cmp	r1, #120	; 0x78
 80042fc:	d1d4      	bne.n	80042a8 <_printf_i+0x30>
 80042fe:	2378      	movs	r3, #120	; 0x78
 8004300:	f884 3045 	strb.w	r3, [r4, #69]	; 0x45
 8004304:	4864      	ldr	r0, [pc, #400]	; (8004498 <_printf_i+0x220>)
 8004306:	e055      	b.n	80043b4 <_printf_i+0x13c>
 8004308:	6813      	ldr	r3, [r2, #0]
 800430a:	1d19      	adds	r1, r3, #4
 800430c:	681b      	ldr	r3, [r3, #0]
 800430e:	6011      	str	r1, [r2, #0]
 8004310:	f104 0542 	add.w	r5, r4, #66	; 0x42
 8004314:	f884 3042 	strb.w	r3, [r4, #66]	; 0x42
 8004318:	2301      	movs	r3, #1
 800431a:	e08c      	b.n	8004436 <_printf_i+0x1be>
 800431c:	681b      	ldr	r3, [r3, #0]
 800431e:	6011      	str	r1, [r2, #0]
 8004320:	f010 0f40 	tst.w	r0, #64	; 0x40
 8004324:	bf18      	it	ne
 8004326:	b21b      	sxthne	r3, r3
 8004328:	e7cf      	b.n	80042ca <_printf_i+0x52>
 800432a:	6813      	ldr	r3, [r2, #0]
 800432c:	6825      	ldr	r5, [r4, #0]
 800432e:	1d18      	adds	r0, r3, #4
 8004330:	6010      	str	r0, [r2, #0]
 8004332:	0628      	lsls	r0, r5, #24
 8004334:	d501      	bpl.n	800433a <_printf_i+0xc2>
 8004336:	681b      	ldr	r3, [r3, #0]
 8004338:	e002      	b.n	8004340 <_printf_i+0xc8>
 800433a:	0668      	lsls	r0, r5, #25
 800433c:	d5fb      	bpl.n	8004336 <_printf_i+0xbe>
 800433e:	881b      	ldrh	r3, [r3, #0]
 8004340:	4854      	ldr	r0, [pc, #336]	; (8004494 <_printf_i+0x21c>)
 8004342:	296f      	cmp	r1, #111	; 0x6f
 8004344:	bf14      	ite	ne
 8004346:	220a      	movne	r2, #10
 8004348:	2208      	moveq	r2, #8
 800434a:	2100      	movs	r1, #0
 800434c:	f884 1043 	strb.w	r1, [r4, #67]	; 0x43
 8004350:	6865      	ldr	r5, [r4, #4]
 8004352:	60a5      	str	r5, [r4, #8]
 8004354:	2d00      	cmp	r5, #0
 8004356:	f2c0 8095 	blt.w	8004484 <_printf_i+0x20c>
 800435a:	6821      	ldr	r1, [r4, #0]
 800435c:	f021 0104 	bic.w	r1, r1, #4
 8004360:	6021      	str	r1, [r4, #0]
 8004362:	2b00      	cmp	r3, #0
 8004364:	d13d      	bne.n	80043e2 <_printf_i+0x16a>
 8004366:	2d00      	cmp	r5, #0
 8004368:	f040 808e 	bne.w	8004488 <_printf_i+0x210>
 800436c:	4665      	mov	r5, ip
 800436e:	2a08      	cmp	r2, #8
 8004370:	d10b      	bne.n	800438a <_printf_i+0x112>
 8004372:	6823      	ldr	r3, [r4, #0]
 8004374:	07db      	lsls	r3, r3, #31
 8004376:	d508      	bpl.n	800438a <_printf_i+0x112>
 8004378:	6923      	ldr	r3, [r4, #16]
 800437a:	6862      	ldr	r2, [r4, #4]
 800437c:	429a      	cmp	r2, r3
 800437e:	bfde      	ittt	le
 8004380:	2330      	movle	r3, #48	; 0x30
 8004382:	f805 3c01 	strble.w	r3, [r5, #-1]
 8004386:	f105 35ff 	addle.w	r5, r5, #4294967295
 800438a:	ebac 0305 	sub.w	r3, ip, r5
 800438e:	6123      	str	r3, [r4, #16]
 8004390:	f8cd 8000 	str.w	r8, [sp]
 8004394:	463b      	mov	r3, r7
 8004396:	aa03      	add	r2, sp, #12
 8004398:	4621      	mov	r1, r4
 800439a:	4630      	mov	r0, r6
 800439c:	f7ff fef6 	bl	800418c <_printf_common>
 80043a0:	3001      	adds	r0, #1
 80043a2:	d14d      	bne.n	8004440 <_printf_i+0x1c8>
 80043a4:	f04f 30ff 	mov.w	r0, #4294967295
 80043a8:	b005      	add	sp, #20
 80043aa:	e8bd 83f0 	ldmia.w	sp!, {r4, r5, r6, r7, r8, r9, pc}
 80043ae:	4839      	ldr	r0, [pc, #228]	; (8004494 <_printf_i+0x21c>)
 80043b0:	f884 1045 	strb.w	r1, [r4, #69]	; 0x45
 80043b4:	6813      	ldr	r3, [r2, #0]
 80043b6:	6821      	ldr	r1, [r4, #0]
 80043b8:	1d1d      	adds	r5, r3, #4
 80043ba:	681b      	ldr	r3, [r3, #0]
 80043bc:	6015      	str	r5, [r2, #0]
 80043be:	060a      	lsls	r2, r1, #24
 80043c0:	d50b      	bpl.n	80043da <_printf_i+0x162>
 80043c2:	07ca      	lsls	r2, r1, #31
 80043c4:	bf44      	itt	mi
 80043c6:	f041 0120 	orrmi.w	r1, r1, #32
 80043ca:	6021      	strmi	r1, [r4, #0]
 80043cc:	b91b      	cbnz	r3, 80043d6 <_printf_i+0x15e>
 80043ce:	6822      	ldr	r2, [r4, #0]
 80043d0:	f022 0220 	bic.w	r2, r2, #32
 80043d4:	6022      	str	r2, [r4, #0]
 80043d6:	2210      	movs	r2, #16
 80043d8:	e7b7      	b.n	800434a <_printf_i+0xd2>
 80043da:	064d      	lsls	r5, r1, #25
 80043dc:	bf48      	it	mi
 80043de:	b29b      	uxthmi	r3, r3
 80043e0:	e7ef      	b.n	80043c2 <_printf_i+0x14a>
 80043e2:	4665      	mov	r5, ip
 80043e4:	fbb3 f1f2 	udiv	r1, r3, r2
 80043e8:	fb02 3311 	mls	r3, r2, r1, r3
 80043ec:	5cc3      	ldrb	r3, [r0, r3]
 80043ee:	f805 3d01 	strb.w	r3, [r5, #-1]!
 80043f2:	460b      	mov	r3, r1
 80043f4:	2900      	cmp	r1, #0
 80043f6:	d1f5      	bne.n	80043e4 <_printf_i+0x16c>
 80043f8:	e7b9      	b.n	800436e <_printf_i+0xf6>
 80043fa:	6813      	ldr	r3, [r2, #0]
 80043fc:	6825      	ldr	r5, [r4, #0]
 80043fe:	6961      	ldr	r1, [r4, #20]
 8004400:	1d18      	adds	r0, r3, #4
 8004402:	6010      	str	r0, [r2, #0]
 8004404:	0628      	lsls	r0, r5, #24
 8004406:	681b      	ldr	r3, [r3, #0]
 8004408:	d501      	bpl.n	800440e <_printf_i+0x196>
 800440a:	6019      	str	r1, [r3, #0]
 800440c:	e002      	b.n	8004414 <_printf_i+0x19c>
 800440e:	066a      	lsls	r2, r5, #25
 8004410:	d5fb      	bpl.n	800440a <_printf_i+0x192>
 8004412:	8019      	strh	r1, [r3, #0]
 8004414:	2300      	movs	r3, #0
 8004416:	6123      	str	r3, [r4, #16]
 8004418:	4665      	mov	r5, ip
 800441a:	e7b9      	b.n	8004390 <_printf_i+0x118>
 800441c:	6813      	ldr	r3, [r2, #0]
 800441e:	1d19      	adds	r1, r3, #4
 8004420:	6011      	str	r1, [r2, #0]
 8004422:	681d      	ldr	r5, [r3, #0]
 8004424:	6862      	ldr	r2, [r4, #4]
 8004426:	2100      	movs	r1, #0
 8004428:	4628      	mov	r0, r5
 800442a:	f7fb ff59 	bl	80002e0 <memchr>
 800442e:	b108      	cbz	r0, 8004434 <_printf_i+0x1bc>
 8004430:	1b40      	subs	r0, r0, r5
 8004432:	6060      	str	r0, [r4, #4]
 8004434:	6863      	ldr	r3, [r4, #4]
 8004436:	6123      	str	r3, [r4, #16]
 8004438:	2300      	movs	r3, #0
 800443a:	f884 3043 	strb.w	r3, [r4, #67]	; 0x43
 800443e:	e7a7      	b.n	8004390 <_printf_i+0x118>
 8004440:	6923      	ldr	r3, [r4, #16]
 8004442:	462a      	mov	r2, r5
 8004444:	4639      	mov	r1, r7
 8004446:	4630      	mov	r0, r6
 8004448:	47c0      	blx	r8
 800444a:	3001      	adds	r0, #1
 800444c:	d0aa      	beq.n	80043a4 <_printf_i+0x12c>
 800444e:	6823      	ldr	r3, [r4, #0]
 8004450:	079b      	lsls	r3, r3, #30
 8004452:	d413      	bmi.n	800447c <_printf_i+0x204>
 8004454:	68e0      	ldr	r0, [r4, #12]
 8004456:	9b03      	ldr	r3, [sp, #12]
 8004458:	4298      	cmp	r0, r3
 800445a:	bfb8      	it	lt
 800445c:	4618      	movlt	r0, r3
 800445e:	e7a3      	b.n	80043a8 <_printf_i+0x130>
 8004460:	2301      	movs	r3, #1
 8004462:	464a      	mov	r2, r9
 8004464:	4639      	mov	r1, r7
 8004466:	4630      	mov	r0, r6
 8004468:	47c0      	blx	r8
 800446a:	3001      	adds	r0, #1
 800446c:	d09a      	beq.n	80043a4 <_printf_i+0x12c>
 800446e:	3501      	adds	r5, #1
 8004470:	68e3      	ldr	r3, [r4, #12]
 8004472:	9a03      	ldr	r2, [sp, #12]
 8004474:	1a9b      	subs	r3, r3, r2
 8004476:	42ab      	cmp	r3, r5
 8004478:	dcf2      	bgt.n	8004460 <_printf_i+0x1e8>
 800447a:	e7eb      	b.n	8004454 <_printf_i+0x1dc>
 800447c:	2500      	movs	r5, #0
 800447e:	f104 0919 	add.w	r9, r4, #25
 8004482:	e7f5      	b.n	8004470 <_printf_i+0x1f8>
 8004484:	2b00      	cmp	r3, #0
 8004486:	d1ac      	bne.n	80043e2 <_printf_i+0x16a>
 8004488:	7803      	ldrb	r3, [r0, #0]
 800448a:	f884 3042 	strb.w	r3, [r4, #66]	; 0x42
 800448e:	f104 0542 	add.w	r5, r4, #66	; 0x42
 8004492:	e76c      	b.n	800436e <_printf_i+0xf6>
 8004494:	08004b51 	.word	0x08004b51
 8004498:	08004b62 	.word	0x08004b62

0800449c <_sbrk_r>:
 800449c:	b538      	push	{r3, r4, r5, lr}
 800449e:	4c06      	ldr	r4, [pc, #24]	; (80044b8 <_sbrk_r+0x1c>)
 80044a0:	2300      	movs	r3, #0
 80044a2:	4605      	mov	r5, r0
 80044a4:	4608      	mov	r0, r1
 80044a6:	6023      	str	r3, [r4, #0]
 80044a8:	f7fc fbec 	bl	8000c84 <_sbrk>
 80044ac:	1c43      	adds	r3, r0, #1
 80044ae:	d102      	bne.n	80044b6 <_sbrk_r+0x1a>
 80044b0:	6823      	ldr	r3, [r4, #0]
 80044b2:	b103      	cbz	r3, 80044b6 <_sbrk_r+0x1a>
 80044b4:	602b      	str	r3, [r5, #0]
 80044b6:	bd38      	pop	{r3, r4, r5, pc}
 80044b8:	24000698 	.word	0x24000698

080044bc <__sread>:
 80044bc:	b510      	push	{r4, lr}
 80044be:	460c      	mov	r4, r1
 80044c0:	f9b1 100e 	ldrsh.w	r1, [r1, #14]
 80044c4:	f000 fa96 	bl	80049f4 <_read_r>
 80044c8:	2800      	cmp	r0, #0
 80044ca:	bfab      	itete	ge
 80044cc:	6d63      	ldrge	r3, [r4, #84]	; 0x54
 80044ce:	89a3      	ldrhlt	r3, [r4, #12]
 80044d0:	181b      	addge	r3, r3, r0
 80044d2:	f423 5380 	biclt.w	r3, r3, #4096	; 0x1000
 80044d6:	bfac      	ite	ge
 80044d8:	6563      	strge	r3, [r4, #84]	; 0x54
 80044da:	81a3      	strhlt	r3, [r4, #12]
 80044dc:	bd10      	pop	{r4, pc}

080044de <__swrite>:
 80044de:	e92d 41f0 	stmdb	sp!, {r4, r5, r6, r7, r8, lr}
 80044e2:	461f      	mov	r7, r3
 80044e4:	898b      	ldrh	r3, [r1, #12]
 80044e6:	05db      	lsls	r3, r3, #23
 80044e8:	4605      	mov	r5, r0
 80044ea:	460c      	mov	r4, r1
 80044ec:	4616      	mov	r6, r2
 80044ee:	d505      	bpl.n	80044fc <__swrite+0x1e>
 80044f0:	2302      	movs	r3, #2
 80044f2:	2200      	movs	r2, #0
 80044f4:	f9b1 100e 	ldrsh.w	r1, [r1, #14]
 80044f8:	f000 f9b6 	bl	8004868 <_lseek_r>
 80044fc:	89a3      	ldrh	r3, [r4, #12]
 80044fe:	f9b4 100e 	ldrsh.w	r1, [r4, #14]
 8004502:	f423 5380 	bic.w	r3, r3, #4096	; 0x1000
 8004506:	81a3      	strh	r3, [r4, #12]
 8004508:	4632      	mov	r2, r6
 800450a:	463b      	mov	r3, r7
 800450c:	4628      	mov	r0, r5
 800450e:	e8bd 41f0 	ldmia.w	sp!, {r4, r5, r6, r7, r8, lr}
 8004512:	f000 b869 	b.w	80045e8 <_write_r>

08004516 <__sseek>:
 8004516:	b510      	push	{r4, lr}
 8004518:	460c      	mov	r4, r1
 800451a:	f9b1 100e 	ldrsh.w	r1, [r1, #14]
 800451e:	f000 f9a3 	bl	8004868 <_lseek_r>
 8004522:	1c43      	adds	r3, r0, #1
 8004524:	89a3      	ldrh	r3, [r4, #12]
 8004526:	bf15      	itete	ne
 8004528:	6560      	strne	r0, [r4, #84]	; 0x54
 800452a:	f423 5380 	biceq.w	r3, r3, #4096	; 0x1000
 800452e:	f443 5380 	orrne.w	r3, r3, #4096	; 0x1000
 8004532:	81a3      	strheq	r3, [r4, #12]
 8004534:	bf18      	it	ne
 8004536:	81a3      	strhne	r3, [r4, #12]
 8004538:	bd10      	pop	{r4, pc}

0800453a <__sclose>:
 800453a:	f9b1 100e 	ldrsh.w	r1, [r1, #14]
 800453e:	f000 b8d3 	b.w	80046e8 <_close_r>
	...

08004544 <__swbuf_r>:
 8004544:	b5f8      	push	{r3, r4, r5, r6, r7, lr}
 8004546:	460e      	mov	r6, r1
 8004548:	4614      	mov	r4, r2
 800454a:	4605      	mov	r5, r0
 800454c:	b118      	cbz	r0, 8004556 <__swbuf_r+0x12>
 800454e:	6983      	ldr	r3, [r0, #24]
 8004550:	b90b      	cbnz	r3, 8004556 <__swbuf_r+0x12>
 8004552:	f7ff fbf7 	bl	8003d44 <__sinit>
 8004556:	4b21      	ldr	r3, [pc, #132]	; (80045dc <__swbuf_r+0x98>)
 8004558:	429c      	cmp	r4, r3
 800455a:	d12a      	bne.n	80045b2 <__swbuf_r+0x6e>
 800455c:	686c      	ldr	r4, [r5, #4]
 800455e:	69a3      	ldr	r3, [r4, #24]
 8004560:	60a3      	str	r3, [r4, #8]
 8004562:	89a3      	ldrh	r3, [r4, #12]
 8004564:	071a      	lsls	r2, r3, #28
 8004566:	d52e      	bpl.n	80045c6 <__swbuf_r+0x82>
 8004568:	6923      	ldr	r3, [r4, #16]
 800456a:	b363      	cbz	r3, 80045c6 <__swbuf_r+0x82>
 800456c:	6923      	ldr	r3, [r4, #16]
 800456e:	6820      	ldr	r0, [r4, #0]
 8004570:	1ac0      	subs	r0, r0, r3
 8004572:	6963      	ldr	r3, [r4, #20]
 8004574:	b2f6      	uxtb	r6, r6
 8004576:	4283      	cmp	r3, r0
 8004578:	4637      	mov	r7, r6
 800457a:	dc04      	bgt.n	8004586 <__swbuf_r+0x42>
 800457c:	4621      	mov	r1, r4
 800457e:	4628      	mov	r0, r5
 8004580:	f000 f948 	bl	8004814 <_fflush_r>
 8004584:	bb28      	cbnz	r0, 80045d2 <__swbuf_r+0x8e>
 8004586:	68a3      	ldr	r3, [r4, #8]
 8004588:	3b01      	subs	r3, #1
 800458a:	60a3      	str	r3, [r4, #8]
 800458c:	6823      	ldr	r3, [r4, #0]
 800458e:	1c5a      	adds	r2, r3, #1
 8004590:	6022      	str	r2, [r4, #0]
 8004592:	701e      	strb	r6, [r3, #0]
 8004594:	6963      	ldr	r3, [r4, #20]
 8004596:	3001      	adds	r0, #1
 8004598:	4283      	cmp	r3, r0
 800459a:	d004      	beq.n	80045a6 <__swbuf_r+0x62>
 800459c:	89a3      	ldrh	r3, [r4, #12]
 800459e:	07db      	lsls	r3, r3, #31
 80045a0:	d519      	bpl.n	80045d6 <__swbuf_r+0x92>
 80045a2:	2e0a      	cmp	r6, #10
 80045a4:	d117      	bne.n	80045d6 <__swbuf_r+0x92>
 80045a6:	4621      	mov	r1, r4
 80045a8:	4628      	mov	r0, r5
 80045aa:	f000 f933 	bl	8004814 <_fflush_r>
 80045ae:	b190      	cbz	r0, 80045d6 <__swbuf_r+0x92>
 80045b0:	e00f      	b.n	80045d2 <__swbuf_r+0x8e>
 80045b2:	4b0b      	ldr	r3, [pc, #44]	; (80045e0 <__swbuf_r+0x9c>)
 80045b4:	429c      	cmp	r4, r3
 80045b6:	d101      	bne.n	80045bc <__swbuf_r+0x78>
 80045b8:	68ac      	ldr	r4, [r5, #8]
 80045ba:	e7d0      	b.n	800455e <__swbuf_r+0x1a>
 80045bc:	4b09      	ldr	r3, [pc, #36]	; (80045e4 <__swbuf_r+0xa0>)
 80045be:	429c      	cmp	r4, r3
 80045c0:	bf08      	it	eq
 80045c2:	68ec      	ldreq	r4, [r5, #12]
 80045c4:	e7cb      	b.n	800455e <__swbuf_r+0x1a>
 80045c6:	4621      	mov	r1, r4
 80045c8:	4628      	mov	r0, r5
 80045ca:	f000 f81f 	bl	800460c <__swsetup_r>
 80045ce:	2800      	cmp	r0, #0
 80045d0:	d0cc      	beq.n	800456c <__swbuf_r+0x28>
 80045d2:	f04f 37ff 	mov.w	r7, #4294967295
 80045d6:	4638      	mov	r0, r7
 80045d8:	bdf8      	pop	{r3, r4, r5, r6, r7, pc}
 80045da:	bf00      	nop
 80045dc:	08004b00 	.word	0x08004b00
 80045e0:	08004b20 	.word	0x08004b20
 80045e4:	08004ae0 	.word	0x08004ae0

080045e8 <_write_r>:
 80045e8:	b538      	push	{r3, r4, r5, lr}
 80045ea:	4c07      	ldr	r4, [pc, #28]	; (8004608 <_write_r+0x20>)
 80045ec:	4605      	mov	r5, r0
 80045ee:	4608      	mov	r0, r1
 80045f0:	4611      	mov	r1, r2
 80045f2:	2200      	movs	r2, #0
 80045f4:	6022      	str	r2, [r4, #0]
 80045f6:	461a      	mov	r2, r3
 80045f8:	f7fc fb2a 	bl	8000c50 <_write>
 80045fc:	1c43      	adds	r3, r0, #1
 80045fe:	d102      	bne.n	8004606 <_write_r+0x1e>
 8004600:	6823      	ldr	r3, [r4, #0]
 8004602:	b103      	cbz	r3, 8004606 <_write_r+0x1e>
 8004604:	602b      	str	r3, [r5, #0]
 8004606:	bd38      	pop	{r3, r4, r5, pc}
 8004608:	24000698 	.word	0x24000698

0800460c <__swsetup_r>:
 800460c:	4b32      	ldr	r3, [pc, #200]	; (80046d8 <__swsetup_r+0xcc>)
 800460e:	b570      	push	{r4, r5, r6, lr}
 8004610:	681d      	ldr	r5, [r3, #0]
 8004612:	4606      	mov	r6, r0
 8004614:	460c      	mov	r4, r1
 8004616:	b125      	cbz	r5, 8004622 <__swsetup_r+0x16>
 8004618:	69ab      	ldr	r3, [r5, #24]
 800461a:	b913      	cbnz	r3, 8004622 <__swsetup_r+0x16>
 800461c:	4628      	mov	r0, r5
 800461e:	f7ff fb91 	bl	8003d44 <__sinit>
 8004622:	4b2e      	ldr	r3, [pc, #184]	; (80046dc <__swsetup_r+0xd0>)
 8004624:	429c      	cmp	r4, r3
 8004626:	d10f      	bne.n	8004648 <__swsetup_r+0x3c>
 8004628:	686c      	ldr	r4, [r5, #4]
 800462a:	f9b4 300c 	ldrsh.w	r3, [r4, #12]
 800462e:	b29a      	uxth	r2, r3
 8004630:	0715      	lsls	r5, r2, #28
 8004632:	d42c      	bmi.n	800468e <__swsetup_r+0x82>
 8004634:	06d0      	lsls	r0, r2, #27
 8004636:	d411      	bmi.n	800465c <__swsetup_r+0x50>
 8004638:	2209      	movs	r2, #9
 800463a:	6032      	str	r2, [r6, #0]
 800463c:	f043 0340 	orr.w	r3, r3, #64	; 0x40
 8004640:	81a3      	strh	r3, [r4, #12]
 8004642:	f04f 30ff 	mov.w	r0, #4294967295
 8004646:	e03e      	b.n	80046c6 <__swsetup_r+0xba>
 8004648:	4b25      	ldr	r3, [pc, #148]	; (80046e0 <__swsetup_r+0xd4>)
 800464a:	429c      	cmp	r4, r3
 800464c:	d101      	bne.n	8004652 <__swsetup_r+0x46>
 800464e:	68ac      	ldr	r4, [r5, #8]
 8004650:	e7eb      	b.n	800462a <__swsetup_r+0x1e>
 8004652:	4b24      	ldr	r3, [pc, #144]	; (80046e4 <__swsetup_r+0xd8>)
 8004654:	429c      	cmp	r4, r3
 8004656:	bf08      	it	eq
 8004658:	68ec      	ldreq	r4, [r5, #12]
 800465a:	e7e6      	b.n	800462a <__swsetup_r+0x1e>
 800465c:	0751      	lsls	r1, r2, #29
 800465e:	d512      	bpl.n	8004686 <__swsetup_r+0x7a>
 8004660:	6b61      	ldr	r1, [r4, #52]	; 0x34
 8004662:	b141      	cbz	r1, 8004676 <__swsetup_r+0x6a>
 8004664:	f104 0344 	add.w	r3, r4, #68	; 0x44
 8004668:	4299      	cmp	r1, r3
 800466a:	d002      	beq.n	8004672 <__swsetup_r+0x66>
 800466c:	4630      	mov	r0, r6
 800466e:	f000 f973 	bl	8004958 <_free_r>
 8004672:	2300      	movs	r3, #0
 8004674:	6363      	str	r3, [r4, #52]	; 0x34
 8004676:	89a3      	ldrh	r3, [r4, #12]
 8004678:	f023 0324 	bic.w	r3, r3, #36	; 0x24
 800467c:	81a3      	strh	r3, [r4, #12]
 800467e:	2300      	movs	r3, #0
 8004680:	6063      	str	r3, [r4, #4]
 8004682:	6923      	ldr	r3, [r4, #16]
 8004684:	6023      	str	r3, [r4, #0]
 8004686:	89a3      	ldrh	r3, [r4, #12]
 8004688:	f043 0308 	orr.w	r3, r3, #8
 800468c:	81a3      	strh	r3, [r4, #12]
 800468e:	6923      	ldr	r3, [r4, #16]
 8004690:	b94b      	cbnz	r3, 80046a6 <__swsetup_r+0x9a>
 8004692:	89a3      	ldrh	r3, [r4, #12]
 8004694:	f403 7320 	and.w	r3, r3, #640	; 0x280
 8004698:	f5b3 7f00 	cmp.w	r3, #512	; 0x200
 800469c:	d003      	beq.n	80046a6 <__swsetup_r+0x9a>
 800469e:	4621      	mov	r1, r4
 80046a0:	4630      	mov	r0, r6
 80046a2:	f000 f917 	bl	80048d4 <__smakebuf_r>
 80046a6:	89a2      	ldrh	r2, [r4, #12]
 80046a8:	f012 0301 	ands.w	r3, r2, #1
 80046ac:	d00c      	beq.n	80046c8 <__swsetup_r+0xbc>
 80046ae:	2300      	movs	r3, #0
 80046b0:	60a3      	str	r3, [r4, #8]
 80046b2:	6963      	ldr	r3, [r4, #20]
 80046b4:	425b      	negs	r3, r3
 80046b6:	61a3      	str	r3, [r4, #24]
 80046b8:	6923      	ldr	r3, [r4, #16]
 80046ba:	b953      	cbnz	r3, 80046d2 <__swsetup_r+0xc6>
 80046bc:	f9b4 300c 	ldrsh.w	r3, [r4, #12]
 80046c0:	f013 0080 	ands.w	r0, r3, #128	; 0x80
 80046c4:	d1ba      	bne.n	800463c <__swsetup_r+0x30>
 80046c6:	bd70      	pop	{r4, r5, r6, pc}
 80046c8:	0792      	lsls	r2, r2, #30
 80046ca:	bf58      	it	pl
 80046cc:	6963      	ldrpl	r3, [r4, #20]
 80046ce:	60a3      	str	r3, [r4, #8]
 80046d0:	e7f2      	b.n	80046b8 <__swsetup_r+0xac>
 80046d2:	2000      	movs	r0, #0
 80046d4:	e7f7      	b.n	80046c6 <__swsetup_r+0xba>
 80046d6:	bf00      	nop
 80046d8:	24000010 	.word	0x24000010
 80046dc:	08004b00 	.word	0x08004b00
 80046e0:	08004b20 	.word	0x08004b20
 80046e4:	08004ae0 	.word	0x08004ae0

080046e8 <_close_r>:
 80046e8:	b538      	push	{r3, r4, r5, lr}
 80046ea:	4c06      	ldr	r4, [pc, #24]	; (8004704 <_close_r+0x1c>)
 80046ec:	2300      	movs	r3, #0
 80046ee:	4605      	mov	r5, r0
 80046f0:	4608      	mov	r0, r1
 80046f2:	6023      	str	r3, [r4, #0]
 80046f4:	f7fc faba 	bl	8000c6c <_close>
 80046f8:	1c43      	adds	r3, r0, #1
 80046fa:	d102      	bne.n	8004702 <_close_r+0x1a>
 80046fc:	6823      	ldr	r3, [r4, #0]
 80046fe:	b103      	cbz	r3, 8004702 <_close_r+0x1a>
 8004700:	602b      	str	r3, [r5, #0]
 8004702:	bd38      	pop	{r3, r4, r5, pc}
 8004704:	24000698 	.word	0x24000698

08004708 <__sflush_r>:
 8004708:	898a      	ldrh	r2, [r1, #12]
 800470a:	e92d 41f0 	stmdb	sp!, {r4, r5, r6, r7, r8, lr}
 800470e:	4605      	mov	r5, r0
 8004710:	0710      	lsls	r0, r2, #28
 8004712:	460c      	mov	r4, r1
 8004714:	d458      	bmi.n	80047c8 <__sflush_r+0xc0>
 8004716:	684b      	ldr	r3, [r1, #4]
 8004718:	2b00      	cmp	r3, #0
 800471a:	dc05      	bgt.n	8004728 <__sflush_r+0x20>
 800471c:	6c0b      	ldr	r3, [r1, #64]	; 0x40
 800471e:	2b00      	cmp	r3, #0
 8004720:	dc02      	bgt.n	8004728 <__sflush_r+0x20>
 8004722:	2000      	movs	r0, #0
 8004724:	e8bd 81f0 	ldmia.w	sp!, {r4, r5, r6, r7, r8, pc}
 8004728:	6ae6      	ldr	r6, [r4, #44]	; 0x2c
 800472a:	2e00      	cmp	r6, #0
 800472c:	d0f9      	beq.n	8004722 <__sflush_r+0x1a>
 800472e:	2300      	movs	r3, #0
 8004730:	f412 5280 	ands.w	r2, r2, #4096	; 0x1000
 8004734:	682f      	ldr	r7, [r5, #0]
 8004736:	6a21      	ldr	r1, [r4, #32]
 8004738:	602b      	str	r3, [r5, #0]
 800473a:	d032      	beq.n	80047a2 <__sflush_r+0x9a>
 800473c:	6d60      	ldr	r0, [r4, #84]	; 0x54
 800473e:	89a3      	ldrh	r3, [r4, #12]
 8004740:	075a      	lsls	r2, r3, #29
 8004742:	d505      	bpl.n	8004750 <__sflush_r+0x48>
 8004744:	6863      	ldr	r3, [r4, #4]
 8004746:	1ac0      	subs	r0, r0, r3
 8004748:	6b63      	ldr	r3, [r4, #52]	; 0x34
 800474a:	b10b      	cbz	r3, 8004750 <__sflush_r+0x48>
 800474c:	6c23      	ldr	r3, [r4, #64]	; 0x40
 800474e:	1ac0      	subs	r0, r0, r3
 8004750:	2300      	movs	r3, #0
 8004752:	4602      	mov	r2, r0
 8004754:	6ae6      	ldr	r6, [r4, #44]	; 0x2c
 8004756:	6a21      	ldr	r1, [r4, #32]
 8004758:	4628      	mov	r0, r5
 800475a:	47b0      	blx	r6
 800475c:	1c43      	adds	r3, r0, #1
 800475e:	89a3      	ldrh	r3, [r4, #12]
 8004760:	d106      	bne.n	8004770 <__sflush_r+0x68>
 8004762:	6829      	ldr	r1, [r5, #0]
 8004764:	291d      	cmp	r1, #29
 8004766:	d848      	bhi.n	80047fa <__sflush_r+0xf2>
 8004768:	4a29      	ldr	r2, [pc, #164]	; (8004810 <__sflush_r+0x108>)
 800476a:	40ca      	lsrs	r2, r1
 800476c:	07d6      	lsls	r6, r2, #31
 800476e:	d544      	bpl.n	80047fa <__sflush_r+0xf2>
 8004770:	2200      	movs	r2, #0
 8004772:	6062      	str	r2, [r4, #4]
 8004774:	04d9      	lsls	r1, r3, #19
 8004776:	6922      	ldr	r2, [r4, #16]
 8004778:	6022      	str	r2, [r4, #0]
 800477a:	d504      	bpl.n	8004786 <__sflush_r+0x7e>
 800477c:	1c42      	adds	r2, r0, #1
 800477e:	d101      	bne.n	8004784 <__sflush_r+0x7c>
 8004780:	682b      	ldr	r3, [r5, #0]
 8004782:	b903      	cbnz	r3, 8004786 <__sflush_r+0x7e>
 8004784:	6560      	str	r0, [r4, #84]	; 0x54
 8004786:	6b61      	ldr	r1, [r4, #52]	; 0x34
 8004788:	602f      	str	r7, [r5, #0]
 800478a:	2900      	cmp	r1, #0
 800478c:	d0c9      	beq.n	8004722 <__sflush_r+0x1a>
 800478e:	f104 0344 	add.w	r3, r4, #68	; 0x44
 8004792:	4299      	cmp	r1, r3
 8004794:	d002      	beq.n	800479c <__sflush_r+0x94>
 8004796:	4628      	mov	r0, r5
 8004798:	f000 f8de 	bl	8004958 <_free_r>
 800479c:	2000      	movs	r0, #0
 800479e:	6360      	str	r0, [r4, #52]	; 0x34
 80047a0:	e7c0      	b.n	8004724 <__sflush_r+0x1c>
 80047a2:	2301      	movs	r3, #1
 80047a4:	4628      	mov	r0, r5
 80047a6:	47b0      	blx	r6
 80047a8:	1c41      	adds	r1, r0, #1
 80047aa:	d1c8      	bne.n	800473e <__sflush_r+0x36>
 80047ac:	682b      	ldr	r3, [r5, #0]
 80047ae:	2b00      	cmp	r3, #0
 80047b0:	d0c5      	beq.n	800473e <__sflush_r+0x36>
 80047b2:	2b1d      	cmp	r3, #29
 80047b4:	d001      	beq.n	80047ba <__sflush_r+0xb2>
 80047b6:	2b16      	cmp	r3, #22
 80047b8:	d101      	bne.n	80047be <__sflush_r+0xb6>
 80047ba:	602f      	str	r7, [r5, #0]
 80047bc:	e7b1      	b.n	8004722 <__sflush_r+0x1a>
 80047be:	89a3      	ldrh	r3, [r4, #12]
 80047c0:	f043 0340 	orr.w	r3, r3, #64	; 0x40
 80047c4:	81a3      	strh	r3, [r4, #12]
 80047c6:	e7ad      	b.n	8004724 <__sflush_r+0x1c>
 80047c8:	690f      	ldr	r7, [r1, #16]
 80047ca:	2f00      	cmp	r7, #0
 80047cc:	d0a9      	beq.n	8004722 <__sflush_r+0x1a>
 80047ce:	0793      	lsls	r3, r2, #30
 80047d0:	680e      	ldr	r6, [r1, #0]
 80047d2:	bf08      	it	eq
 80047d4:	694b      	ldreq	r3, [r1, #20]
 80047d6:	600f      	str	r7, [r1, #0]
 80047d8:	bf18      	it	ne
 80047da:	2300      	movne	r3, #0
 80047dc:	eba6 0807 	sub.w	r8, r6, r7
 80047e0:	608b      	str	r3, [r1, #8]
 80047e2:	f1b8 0f00 	cmp.w	r8, #0
 80047e6:	dd9c      	ble.n	8004722 <__sflush_r+0x1a>
 80047e8:	4643      	mov	r3, r8
 80047ea:	463a      	mov	r2, r7
 80047ec:	6a21      	ldr	r1, [r4, #32]
 80047ee:	6aa6      	ldr	r6, [r4, #40]	; 0x28
 80047f0:	4628      	mov	r0, r5
 80047f2:	47b0      	blx	r6
 80047f4:	2800      	cmp	r0, #0
 80047f6:	dc06      	bgt.n	8004806 <__sflush_r+0xfe>
 80047f8:	89a3      	ldrh	r3, [r4, #12]
 80047fa:	f043 0340 	orr.w	r3, r3, #64	; 0x40
 80047fe:	81a3      	strh	r3, [r4, #12]
 8004800:	f04f 30ff 	mov.w	r0, #4294967295
 8004804:	e78e      	b.n	8004724 <__sflush_r+0x1c>
 8004806:	4407      	add	r7, r0
 8004808:	eba8 0800 	sub.w	r8, r8, r0
 800480c:	e7e9      	b.n	80047e2 <__sflush_r+0xda>
 800480e:	bf00      	nop
 8004810:	20400001 	.word	0x20400001

08004814 <_fflush_r>:
 8004814:	b538      	push	{r3, r4, r5, lr}
 8004816:	690b      	ldr	r3, [r1, #16]
 8004818:	4605      	mov	r5, r0
 800481a:	460c      	mov	r4, r1
 800481c:	b1db      	cbz	r3, 8004856 <_fflush_r+0x42>
 800481e:	b118      	cbz	r0, 8004828 <_fflush_r+0x14>
 8004820:	6983      	ldr	r3, [r0, #24]
 8004822:	b90b      	cbnz	r3, 8004828 <_fflush_r+0x14>
 8004824:	f7ff fa8e 	bl	8003d44 <__sinit>
 8004828:	4b0c      	ldr	r3, [pc, #48]	; (800485c <_fflush_r+0x48>)
 800482a:	429c      	cmp	r4, r3
 800482c:	d109      	bne.n	8004842 <_fflush_r+0x2e>
 800482e:	686c      	ldr	r4, [r5, #4]
 8004830:	f9b4 300c 	ldrsh.w	r3, [r4, #12]
 8004834:	b17b      	cbz	r3, 8004856 <_fflush_r+0x42>
 8004836:	4621      	mov	r1, r4
 8004838:	4628      	mov	r0, r5
 800483a:	e8bd 4038 	ldmia.w	sp!, {r3, r4, r5, lr}
 800483e:	f7ff bf63 	b.w	8004708 <__sflush_r>
 8004842:	4b07      	ldr	r3, [pc, #28]	; (8004860 <_fflush_r+0x4c>)
 8004844:	429c      	cmp	r4, r3
 8004846:	d101      	bne.n	800484c <_fflush_r+0x38>
 8004848:	68ac      	ldr	r4, [r5, #8]
 800484a:	e7f1      	b.n	8004830 <_fflush_r+0x1c>
 800484c:	4b05      	ldr	r3, [pc, #20]	; (8004864 <_fflush_r+0x50>)
 800484e:	429c      	cmp	r4, r3
 8004850:	bf08      	it	eq
 8004852:	68ec      	ldreq	r4, [r5, #12]
 8004854:	e7ec      	b.n	8004830 <_fflush_r+0x1c>
 8004856:	2000      	movs	r0, #0
 8004858:	bd38      	pop	{r3, r4, r5, pc}
 800485a:	bf00      	nop
 800485c:	08004b00 	.word	0x08004b00
 8004860:	08004b20 	.word	0x08004b20
 8004864:	08004ae0 	.word	0x08004ae0

08004868 <_lseek_r>:
 8004868:	b538      	push	{r3, r4, r5, lr}
 800486a:	4c07      	ldr	r4, [pc, #28]	; (8004888 <_lseek_r+0x20>)
 800486c:	4605      	mov	r5, r0
 800486e:	4608      	mov	r0, r1
 8004870:	4611      	mov	r1, r2
 8004872:	2200      	movs	r2, #0
 8004874:	6022      	str	r2, [r4, #0]
 8004876:	461a      	mov	r2, r3
 8004878:	f7fc fa02 	bl	8000c80 <_lseek>
 800487c:	1c43      	adds	r3, r0, #1
 800487e:	d102      	bne.n	8004886 <_lseek_r+0x1e>
 8004880:	6823      	ldr	r3, [r4, #0]
 8004882:	b103      	cbz	r3, 8004886 <_lseek_r+0x1e>
 8004884:	602b      	str	r3, [r5, #0]
 8004886:	bd38      	pop	{r3, r4, r5, pc}
 8004888:	24000698 	.word	0x24000698

0800488c <__swhatbuf_r>:
 800488c:	b570      	push	{r4, r5, r6, lr}
 800488e:	460e      	mov	r6, r1
 8004890:	f9b1 100e 	ldrsh.w	r1, [r1, #14]
 8004894:	2900      	cmp	r1, #0
 8004896:	b096      	sub	sp, #88	; 0x58
 8004898:	4614      	mov	r4, r2
 800489a:	461d      	mov	r5, r3
 800489c:	da07      	bge.n	80048ae <__swhatbuf_r+0x22>
 800489e:	2300      	movs	r3, #0
 80048a0:	602b      	str	r3, [r5, #0]
 80048a2:	89b3      	ldrh	r3, [r6, #12]
 80048a4:	061a      	lsls	r2, r3, #24
 80048a6:	d410      	bmi.n	80048ca <__swhatbuf_r+0x3e>
 80048a8:	f44f 6380 	mov.w	r3, #1024	; 0x400
 80048ac:	e00e      	b.n	80048cc <__swhatbuf_r+0x40>
 80048ae:	466a      	mov	r2, sp
 80048b0:	f000 f8b2 	bl	8004a18 <_fstat_r>
 80048b4:	2800      	cmp	r0, #0
 80048b6:	dbf2      	blt.n	800489e <__swhatbuf_r+0x12>
 80048b8:	9a01      	ldr	r2, [sp, #4]
 80048ba:	f402 4270 	and.w	r2, r2, #61440	; 0xf000
 80048be:	f5a2 5300 	sub.w	r3, r2, #8192	; 0x2000
 80048c2:	425a      	negs	r2, r3
 80048c4:	415a      	adcs	r2, r3
 80048c6:	602a      	str	r2, [r5, #0]
 80048c8:	e7ee      	b.n	80048a8 <__swhatbuf_r+0x1c>
 80048ca:	2340      	movs	r3, #64	; 0x40
 80048cc:	2000      	movs	r0, #0
 80048ce:	6023      	str	r3, [r4, #0]
 80048d0:	b016      	add	sp, #88	; 0x58
 80048d2:	bd70      	pop	{r4, r5, r6, pc}

080048d4 <__smakebuf_r>:
 80048d4:	898b      	ldrh	r3, [r1, #12]
 80048d6:	b573      	push	{r0, r1, r4, r5, r6, lr}
 80048d8:	079d      	lsls	r5, r3, #30
 80048da:	4606      	mov	r6, r0
 80048dc:	460c      	mov	r4, r1
 80048de:	d507      	bpl.n	80048f0 <__smakebuf_r+0x1c>
 80048e0:	f104 0347 	add.w	r3, r4, #71	; 0x47
 80048e4:	6023      	str	r3, [r4, #0]
 80048e6:	6123      	str	r3, [r4, #16]
 80048e8:	2301      	movs	r3, #1
 80048ea:	6163      	str	r3, [r4, #20]
 80048ec:	b002      	add	sp, #8
 80048ee:	bd70      	pop	{r4, r5, r6, pc}
 80048f0:	ab01      	add	r3, sp, #4
 80048f2:	466a      	mov	r2, sp
 80048f4:	f7ff ffca 	bl	800488c <__swhatbuf_r>
 80048f8:	9900      	ldr	r1, [sp, #0]
 80048fa:	4605      	mov	r5, r0
 80048fc:	4630      	mov	r0, r6
 80048fe:	f7ff faab 	bl	8003e58 <_malloc_r>
 8004902:	b948      	cbnz	r0, 8004918 <__smakebuf_r+0x44>
 8004904:	f9b4 300c 	ldrsh.w	r3, [r4, #12]
 8004908:	059a      	lsls	r2, r3, #22
 800490a:	d4ef      	bmi.n	80048ec <__smakebuf_r+0x18>
 800490c:	f023 0303 	bic.w	r3, r3, #3
 8004910:	f043 0302 	orr.w	r3, r3, #2
 8004914:	81a3      	strh	r3, [r4, #12]
 8004916:	e7e3      	b.n	80048e0 <__smakebuf_r+0xc>
 8004918:	4b0d      	ldr	r3, [pc, #52]	; (8004950 <__smakebuf_r+0x7c>)
 800491a:	62b3      	str	r3, [r6, #40]	; 0x28
 800491c:	89a3      	ldrh	r3, [r4, #12]
 800491e:	6020      	str	r0, [r4, #0]
 8004920:	f043 0380 	orr.w	r3, r3, #128	; 0x80
 8004924:	81a3      	strh	r3, [r4, #12]
 8004926:	9b00      	ldr	r3, [sp, #0]
 8004928:	6163      	str	r3, [r4, #20]
 800492a:	9b01      	ldr	r3, [sp, #4]
 800492c:	6120      	str	r0, [r4, #16]
 800492e:	b15b      	cbz	r3, 8004948 <__smakebuf_r+0x74>
 8004930:	f9b4 100e 	ldrsh.w	r1, [r4, #14]
 8004934:	4630      	mov	r0, r6
 8004936:	f000 f881 	bl	8004a3c <_isatty_r>
 800493a:	b128      	cbz	r0, 8004948 <__smakebuf_r+0x74>
 800493c:	89a3      	ldrh	r3, [r4, #12]
 800493e:	f023 0303 	bic.w	r3, r3, #3
 8004942:	f043 0301 	orr.w	r3, r3, #1
 8004946:	81a3      	strh	r3, [r4, #12]
 8004948:	89a3      	ldrh	r3, [r4, #12]
 800494a:	431d      	orrs	r5, r3
 800494c:	81a5      	strh	r5, [r4, #12]
 800494e:	e7cd      	b.n	80048ec <__smakebuf_r+0x18>
 8004950:	08003d0d 	.word	0x08003d0d

08004954 <__malloc_lock>:
 8004954:	4770      	bx	lr

08004956 <__malloc_unlock>:
 8004956:	4770      	bx	lr

08004958 <_free_r>:
 8004958:	b538      	push	{r3, r4, r5, lr}
 800495a:	4605      	mov	r5, r0
 800495c:	2900      	cmp	r1, #0
 800495e:	d045      	beq.n	80049ec <_free_r+0x94>
 8004960:	f851 3c04 	ldr.w	r3, [r1, #-4]
 8004964:	1f0c      	subs	r4, r1, #4
 8004966:	2b00      	cmp	r3, #0
 8004968:	bfb8      	it	lt
 800496a:	18e4      	addlt	r4, r4, r3
 800496c:	f7ff fff2 	bl	8004954 <__malloc_lock>
 8004970:	4a1f      	ldr	r2, [pc, #124]	; (80049f0 <_free_r+0x98>)
 8004972:	6813      	ldr	r3, [r2, #0]
 8004974:	4610      	mov	r0, r2
 8004976:	b933      	cbnz	r3, 8004986 <_free_r+0x2e>
 8004978:	6063      	str	r3, [r4, #4]
 800497a:	6014      	str	r4, [r2, #0]
 800497c:	4628      	mov	r0, r5
 800497e:	e8bd 4038 	ldmia.w	sp!, {r3, r4, r5, lr}
 8004982:	f7ff bfe8 	b.w	8004956 <__malloc_unlock>
 8004986:	42a3      	cmp	r3, r4
 8004988:	d90c      	bls.n	80049a4 <_free_r+0x4c>
 800498a:	6821      	ldr	r1, [r4, #0]
 800498c:	1862      	adds	r2, r4, r1
 800498e:	4293      	cmp	r3, r2
 8004990:	bf04      	itt	eq
 8004992:	681a      	ldreq	r2, [r3, #0]
 8004994:	685b      	ldreq	r3, [r3, #4]
 8004996:	6063      	str	r3, [r4, #4]
 8004998:	bf04      	itt	eq
 800499a:	1852      	addeq	r2, r2, r1
 800499c:	6022      	streq	r2, [r4, #0]
 800499e:	6004      	str	r4, [r0, #0]
 80049a0:	e7ec      	b.n	800497c <_free_r+0x24>
 80049a2:	4613      	mov	r3, r2
 80049a4:	685a      	ldr	r2, [r3, #4]
 80049a6:	b10a      	cbz	r2, 80049ac <_free_r+0x54>
 80049a8:	42a2      	cmp	r2, r4
 80049aa:	d9fa      	bls.n	80049a2 <_free_r+0x4a>
 80049ac:	6819      	ldr	r1, [r3, #0]
 80049ae:	1858      	adds	r0, r3, r1
 80049b0:	42a0      	cmp	r0, r4
 80049b2:	d10b      	bne.n	80049cc <_free_r+0x74>
 80049b4:	6820      	ldr	r0, [r4, #0]
 80049b6:	4401      	add	r1, r0
 80049b8:	1858      	adds	r0, r3, r1
 80049ba:	4282      	cmp	r2, r0
 80049bc:	6019      	str	r1, [r3, #0]
 80049be:	d1dd      	bne.n	800497c <_free_r+0x24>
 80049c0:	6810      	ldr	r0, [r2, #0]
 80049c2:	6852      	ldr	r2, [r2, #4]
 80049c4:	605a      	str	r2, [r3, #4]
 80049c6:	4401      	add	r1, r0
 80049c8:	6019      	str	r1, [r3, #0]
 80049ca:	e7d7      	b.n	800497c <_free_r+0x24>
 80049cc:	d902      	bls.n	80049d4 <_free_r+0x7c>
 80049ce:	230c      	movs	r3, #12
 80049d0:	602b      	str	r3, [r5, #0]
 80049d2:	e7d3      	b.n	800497c <_free_r+0x24>
 80049d4:	6820      	ldr	r0, [r4, #0]
 80049d6:	1821      	adds	r1, r4, r0
 80049d8:	428a      	cmp	r2, r1
 80049da:	bf04      	itt	eq
 80049dc:	6811      	ldreq	r1, [r2, #0]
 80049de:	6852      	ldreq	r2, [r2, #4]
 80049e0:	6062      	str	r2, [r4, #4]
 80049e2:	bf04      	itt	eq
 80049e4:	1809      	addeq	r1, r1, r0
 80049e6:	6021      	streq	r1, [r4, #0]
 80049e8:	605c      	str	r4, [r3, #4]
 80049ea:	e7c7      	b.n	800497c <_free_r+0x24>
 80049ec:	bd38      	pop	{r3, r4, r5, pc}
 80049ee:	bf00      	nop
 80049f0:	24000154 	.word	0x24000154

080049f4 <_read_r>:
 80049f4:	b538      	push	{r3, r4, r5, lr}
 80049f6:	4c07      	ldr	r4, [pc, #28]	; (8004a14 <_read_r+0x20>)
 80049f8:	4605      	mov	r5, r0
 80049fa:	4608      	mov	r0, r1
 80049fc:	4611      	mov	r1, r2
 80049fe:	2200      	movs	r2, #0
 8004a00:	6022      	str	r2, [r4, #0]
 8004a02:	461a      	mov	r2, r3
 8004a04:	f7fc f916 	bl	8000c34 <_read>
 8004a08:	1c43      	adds	r3, r0, #1
 8004a0a:	d102      	bne.n	8004a12 <_read_r+0x1e>
 8004a0c:	6823      	ldr	r3, [r4, #0]
 8004a0e:	b103      	cbz	r3, 8004a12 <_read_r+0x1e>
 8004a10:	602b      	str	r3, [r5, #0]
 8004a12:	bd38      	pop	{r3, r4, r5, pc}
 8004a14:	24000698 	.word	0x24000698

08004a18 <_fstat_r>:
 8004a18:	b538      	push	{r3, r4, r5, lr}
 8004a1a:	4c07      	ldr	r4, [pc, #28]	; (8004a38 <_fstat_r+0x20>)
 8004a1c:	2300      	movs	r3, #0
 8004a1e:	4605      	mov	r5, r0
 8004a20:	4608      	mov	r0, r1
 8004a22:	4611      	mov	r1, r2
 8004a24:	6023      	str	r3, [r4, #0]
 8004a26:	f7fc f924 	bl	8000c72 <_fstat>
 8004a2a:	1c43      	adds	r3, r0, #1
 8004a2c:	d102      	bne.n	8004a34 <_fstat_r+0x1c>
 8004a2e:	6823      	ldr	r3, [r4, #0]
 8004a30:	b103      	cbz	r3, 8004a34 <_fstat_r+0x1c>
 8004a32:	602b      	str	r3, [r5, #0]
 8004a34:	bd38      	pop	{r3, r4, r5, pc}
 8004a36:	bf00      	nop
 8004a38:	24000698 	.word	0x24000698

08004a3c <_isatty_r>:
 8004a3c:	b538      	push	{r3, r4, r5, lr}
 8004a3e:	4c06      	ldr	r4, [pc, #24]	; (8004a58 <_isatty_r+0x1c>)
 8004a40:	2300      	movs	r3, #0
 8004a42:	4605      	mov	r5, r0
 8004a44:	4608      	mov	r0, r1
 8004a46:	6023      	str	r3, [r4, #0]
 8004a48:	f7fc f918 	bl	8000c7c <_isatty>
 8004a4c:	1c43      	adds	r3, r0, #1
 8004a4e:	d102      	bne.n	8004a56 <_isatty_r+0x1a>
 8004a50:	6823      	ldr	r3, [r4, #0]
 8004a52:	b103      	cbz	r3, 8004a56 <_isatty_r+0x1a>
 8004a54:	602b      	str	r3, [r5, #0]
 8004a56:	bd38      	pop	{r3, r4, r5, pc}
 8004a58:	24000698 	.word	0x24000698

08004a5c <_init>:
 8004a5c:	b5f8      	push	{r3, r4, r5, r6, r7, lr}
 8004a5e:	bf00      	nop
 8004a60:	bcf8      	pop	{r3, r4, r5, r6, r7}
 8004a62:	bc08      	pop	{r3}
 8004a64:	469e      	mov	lr, r3
 8004a66:	4770      	bx	lr

08004a68 <_fini>:
 8004a68:	b5f8      	push	{r3, r4, r5, r6, r7, lr}
 8004a6a:	bf00      	nop
 8004a6c:	bcf8      	pop	{r3, r4, r5, r6, r7}
 8004a6e:	bc08      	pop	{r3}
 8004a70:	469e      	mov	lr, r3
 8004a72:	4770      	bx	lr
